ARM GAS  C:\Users\user\AppData\Local\Temp\ccXUtaRu.s 			page 1


   1              		.cpu cortex-m4
   2              		.arch armv7e-m
   3              		.fpu softvfp
   4              		.eabi_attribute 20, 1
   5              		.eabi_attribute 21, 1
   6              		.eabi_attribute 23, 3
   7              		.eabi_attribute 24, 1
   8              		.eabi_attribute 25, 1
   9              		.eabi_attribute 26, 1
  10              		.eabi_attribute 30, 1
  11              		.eabi_attribute 34, 1
  12              		.eabi_attribute 18, 4
  13              		.file	"at32f435_437_adc.c"
  14              		.text
  15              	.Ltext0:
  16              		.cfi_sections	.debug_frame
  17              		.section	.text.adc_reset,"ax",%progbits
  18              		.align	1
  19              		.global	adc_reset
  20              		.syntax unified
  21              		.thumb
  22              		.thumb_func
  24              	adc_reset:
  25              	.LFB133:
  26              		.file 1 "bsp/libraries/drivers/src/at32f435_437_adc.c"
   1:bsp/libraries/drivers/src/at32f435_437_adc.c **** /**
   2:bsp/libraries/drivers/src/at32f435_437_adc.c ****   **************************************************************************
   3:bsp/libraries/drivers/src/at32f435_437_adc.c ****   * @file     at32f435_437_adc.c
   4:bsp/libraries/drivers/src/at32f435_437_adc.c ****   * @brief    contains all the functions for the adc firmware library
   5:bsp/libraries/drivers/src/at32f435_437_adc.c ****   **************************************************************************
   6:bsp/libraries/drivers/src/at32f435_437_adc.c ****   *                       Copyright notice & Disclaimer
   7:bsp/libraries/drivers/src/at32f435_437_adc.c ****   *
   8:bsp/libraries/drivers/src/at32f435_437_adc.c ****   * The software Board Support Package (BSP) that is made available to
   9:bsp/libraries/drivers/src/at32f435_437_adc.c ****   * download from Artery official website is the copyrighted work of Artery.
  10:bsp/libraries/drivers/src/at32f435_437_adc.c ****   * Artery authorizes customers to use, copy, and distribute the BSP
  11:bsp/libraries/drivers/src/at32f435_437_adc.c ****   * software and its related documentation for the purpose of design and
  12:bsp/libraries/drivers/src/at32f435_437_adc.c ****   * development in conjunction with Artery microcontrollers. Use of the
  13:bsp/libraries/drivers/src/at32f435_437_adc.c ****   * software is governed by this copyright notice and the following disclaimer.
  14:bsp/libraries/drivers/src/at32f435_437_adc.c ****   *
  15:bsp/libraries/drivers/src/at32f435_437_adc.c ****   * THIS SOFTWARE IS PROVIDED ON "AS IS" BASIS WITHOUT WARRANTIES,
  16:bsp/libraries/drivers/src/at32f435_437_adc.c ****   * GUARANTEES OR REPRESENTATIONS OF ANY KIND. ARTERY EXPRESSLY DISCLAIMS,
  17:bsp/libraries/drivers/src/at32f435_437_adc.c ****   * TO THE FULLEST EXTENT PERMITTED BY LAW, ALL EXPRESS, IMPLIED OR
  18:bsp/libraries/drivers/src/at32f435_437_adc.c ****   * STATUTORY OR OTHER WARRANTIES, GUARANTEES OR REPRESENTATIONS,
  19:bsp/libraries/drivers/src/at32f435_437_adc.c ****   * INCLUDING BUT NOT LIMITED TO, THE IMPLIED WARRANTIES OF MERCHANTABILITY,
  20:bsp/libraries/drivers/src/at32f435_437_adc.c ****   * FITNESS FOR A PARTICULAR PURPOSE, OR NON-INFRINGEMENT.
  21:bsp/libraries/drivers/src/at32f435_437_adc.c ****   *
  22:bsp/libraries/drivers/src/at32f435_437_adc.c ****   **************************************************************************
  23:bsp/libraries/drivers/src/at32f435_437_adc.c ****   */
  24:bsp/libraries/drivers/src/at32f435_437_adc.c **** 
  25:bsp/libraries/drivers/src/at32f435_437_adc.c **** #include "at32f435_437_conf.h"
  26:bsp/libraries/drivers/src/at32f435_437_adc.c **** 
  27:bsp/libraries/drivers/src/at32f435_437_adc.c **** /** @addtogroup AT32F435_437_periph_driver
  28:bsp/libraries/drivers/src/at32f435_437_adc.c ****   * @{
  29:bsp/libraries/drivers/src/at32f435_437_adc.c ****   */
  30:bsp/libraries/drivers/src/at32f435_437_adc.c **** 
  31:bsp/libraries/drivers/src/at32f435_437_adc.c **** /** @defgroup ADC
  32:bsp/libraries/drivers/src/at32f435_437_adc.c ****   * @brief ADC driver modules
ARM GAS  C:\Users\user\AppData\Local\Temp\ccXUtaRu.s 			page 2


  33:bsp/libraries/drivers/src/at32f435_437_adc.c ****   * @{
  34:bsp/libraries/drivers/src/at32f435_437_adc.c ****   */
  35:bsp/libraries/drivers/src/at32f435_437_adc.c **** 
  36:bsp/libraries/drivers/src/at32f435_437_adc.c **** #ifdef ADC_MODULE_ENABLED
  37:bsp/libraries/drivers/src/at32f435_437_adc.c **** 
  38:bsp/libraries/drivers/src/at32f435_437_adc.c **** /** @defgroup ADC_private_functions
  39:bsp/libraries/drivers/src/at32f435_437_adc.c ****   * @{
  40:bsp/libraries/drivers/src/at32f435_437_adc.c ****   */
  41:bsp/libraries/drivers/src/at32f435_437_adc.c **** 
  42:bsp/libraries/drivers/src/at32f435_437_adc.c **** /**
  43:bsp/libraries/drivers/src/at32f435_437_adc.c ****   * @brief  deinitialize the adc peripheral registers to their default reset values.
  44:bsp/libraries/drivers/src/at32f435_437_adc.c ****   * @param  none
  45:bsp/libraries/drivers/src/at32f435_437_adc.c ****   * @retval none
  46:bsp/libraries/drivers/src/at32f435_437_adc.c ****   */
  47:bsp/libraries/drivers/src/at32f435_437_adc.c **** void adc_reset(void)
  48:bsp/libraries/drivers/src/at32f435_437_adc.c **** {
  27              		.loc 1 48 1 view -0
  28              		.cfi_startproc
  29              		@ args = 0, pretend = 0, frame = 0
  30              		@ frame_needed = 0, uses_anonymous_args = 0
  31 0000 10B5     		push	{r4, lr}
  32              	.LCFI0:
  33              		.cfi_def_cfa_offset 8
  34              		.cfi_offset 4, -8
  35              		.cfi_offset 14, -4
  49:bsp/libraries/drivers/src/at32f435_437_adc.c ****   crm_periph_reset(CRM_ADC_PERIPH_RESET, TRUE);
  36              		.loc 1 49 3 view .LVU1
  37 0002 054C     		ldr	r4, .L3
  38 0004 0121     		movs	r1, #1
  39 0006 2046     		mov	r0, r4
  40 0008 FFF7FEFF 		bl	crm_periph_reset
  41              	.LVL0:
  50:bsp/libraries/drivers/src/at32f435_437_adc.c ****   crm_periph_reset(CRM_ADC_PERIPH_RESET, FALSE);
  42              		.loc 1 50 3 view .LVU2
  43 000c 0021     		movs	r1, #0
  44 000e 2046     		mov	r0, r4
  45 0010 FFF7FEFF 		bl	crm_periph_reset
  46              	.LVL1:
  51:bsp/libraries/drivers/src/at32f435_437_adc.c **** }
  47              		.loc 1 51 1 is_stmt 0 view .LVU3
  48 0014 10BD     		pop	{r4, pc}
  49              	.L4:
  50 0016 00BF     		.align	2
  51              	.L3:
  52 0018 08002400 		.word	2359304
  53              		.cfi_endproc
  54              	.LFE133:
  56              		.section	.text.adc_enable,"ax",%progbits
  57              		.align	1
  58              		.global	adc_enable
  59              		.syntax unified
  60              		.thumb
  61              		.thumb_func
  63              	adc_enable:
  64              	.LVL2:
  65              	.LFB134:
  52:bsp/libraries/drivers/src/at32f435_437_adc.c **** 
ARM GAS  C:\Users\user\AppData\Local\Temp\ccXUtaRu.s 			page 3


  53:bsp/libraries/drivers/src/at32f435_437_adc.c **** /**
  54:bsp/libraries/drivers/src/at32f435_437_adc.c ****   * @brief  enable or disable the specified adc peripheral.
  55:bsp/libraries/drivers/src/at32f435_437_adc.c ****   * @param  adc_x: select the adc peripheral.
  56:bsp/libraries/drivers/src/at32f435_437_adc.c ****   *         this parameter can be one of the following values:
  57:bsp/libraries/drivers/src/at32f435_437_adc.c ****   *         - ADC1, ADC2, ADC3.
  58:bsp/libraries/drivers/src/at32f435_437_adc.c ****   * @param  new_state: new state of a/d converter.
  59:bsp/libraries/drivers/src/at32f435_437_adc.c ****   *         this parameter can be: TRUE or FALSE.
  60:bsp/libraries/drivers/src/at32f435_437_adc.c ****   * @retval none
  61:bsp/libraries/drivers/src/at32f435_437_adc.c ****   */
  62:bsp/libraries/drivers/src/at32f435_437_adc.c **** void adc_enable(adc_type *adc_x, confirm_state new_state)
  63:bsp/libraries/drivers/src/at32f435_437_adc.c **** {
  66              		.loc 1 63 1 is_stmt 1 view -0
  67              		.cfi_startproc
  68              		@ args = 0, pretend = 0, frame = 0
  69              		@ frame_needed = 0, uses_anonymous_args = 0
  70              		@ link register save eliminated.
  64:bsp/libraries/drivers/src/at32f435_437_adc.c ****   adc_x->ctrl2_bit.adcen = new_state;
  71              		.loc 1 64 3 view .LVU5
  72              		.loc 1 64 26 is_stmt 0 view .LVU6
  73 0000 8368     		ldr	r3, [r0, #8]
  74 0002 61F30003 		bfi	r3, r1, #0, #1
  75 0006 8360     		str	r3, [r0, #8]
  65:bsp/libraries/drivers/src/at32f435_437_adc.c **** }
  76              		.loc 1 65 1 view .LVU7
  77 0008 7047     		bx	lr
  78              		.cfi_endproc
  79              	.LFE134:
  81              		.section	.text.adc_base_default_para_init,"ax",%progbits
  82              		.align	1
  83              		.global	adc_base_default_para_init
  84              		.syntax unified
  85              		.thumb
  86              		.thumb_func
  88              	adc_base_default_para_init:
  89              	.LVL3:
  90              	.LFB135:
  66:bsp/libraries/drivers/src/at32f435_437_adc.c **** 
  67:bsp/libraries/drivers/src/at32f435_437_adc.c **** /**
  68:bsp/libraries/drivers/src/at32f435_437_adc.c ****   * @brief  adc base default para init.
  69:bsp/libraries/drivers/src/at32f435_437_adc.c ****   * @param  sequence_mode: set the state of adc sequence mode.
  70:bsp/libraries/drivers/src/at32f435_437_adc.c ****   *         this parameter can be:TRUE or FALSE
  71:bsp/libraries/drivers/src/at32f435_437_adc.c ****   * @param  repeat_mode: set the state of adc repeat conversion mode.
  72:bsp/libraries/drivers/src/at32f435_437_adc.c ****   *         this parameter can be:TRUE or FALSE
  73:bsp/libraries/drivers/src/at32f435_437_adc.c ****   * @param  data_align: set the state of adc data alignment.
  74:bsp/libraries/drivers/src/at32f435_437_adc.c ****   *         this parameter can be one of the following values:
  75:bsp/libraries/drivers/src/at32f435_437_adc.c ****   *         - ADC_RIGHT_ALIGNMENT
  76:bsp/libraries/drivers/src/at32f435_437_adc.c ****   *         - ADC_LEFT_ALIGNMENT
  77:bsp/libraries/drivers/src/at32f435_437_adc.c ****   * @param  ordinary_channel_length: configure the adc ordinary channel sequence length.
  78:bsp/libraries/drivers/src/at32f435_437_adc.c ****   *         this parameter can be:
  79:bsp/libraries/drivers/src/at32f435_437_adc.c ****   *         - (0x1~0x10)
  80:bsp/libraries/drivers/src/at32f435_437_adc.c ****   * @retval none
  81:bsp/libraries/drivers/src/at32f435_437_adc.c ****   */
  82:bsp/libraries/drivers/src/at32f435_437_adc.c **** void adc_base_default_para_init(adc_base_config_type *adc_base_struct)
  83:bsp/libraries/drivers/src/at32f435_437_adc.c **** {
  91              		.loc 1 83 1 is_stmt 1 view -0
  92              		.cfi_startproc
  93              		@ args = 0, pretend = 0, frame = 0
ARM GAS  C:\Users\user\AppData\Local\Temp\ccXUtaRu.s 			page 4


  94              		@ frame_needed = 0, uses_anonymous_args = 0
  95              		@ link register save eliminated.
  84:bsp/libraries/drivers/src/at32f435_437_adc.c ****   adc_base_struct->sequence_mode = FALSE;
  96              		.loc 1 84 3 view .LVU9
  97              		.loc 1 84 34 is_stmt 0 view .LVU10
  98 0000 0023     		movs	r3, #0
  99 0002 0370     		strb	r3, [r0]
  85:bsp/libraries/drivers/src/at32f435_437_adc.c ****   adc_base_struct->repeat_mode = FALSE;
 100              		.loc 1 85 3 is_stmt 1 view .LVU11
 101              		.loc 1 85 32 is_stmt 0 view .LVU12
 102 0004 4370     		strb	r3, [r0, #1]
  86:bsp/libraries/drivers/src/at32f435_437_adc.c ****   adc_base_struct->data_align = ADC_RIGHT_ALIGNMENT;
 103              		.loc 1 86 3 is_stmt 1 view .LVU13
 104              		.loc 1 86 31 is_stmt 0 view .LVU14
 105 0006 8370     		strb	r3, [r0, #2]
  87:bsp/libraries/drivers/src/at32f435_437_adc.c ****   adc_base_struct->ordinary_channel_length = 1;
 106              		.loc 1 87 3 is_stmt 1 view .LVU15
 107              		.loc 1 87 44 is_stmt 0 view .LVU16
 108 0008 0123     		movs	r3, #1
 109 000a C370     		strb	r3, [r0, #3]
  88:bsp/libraries/drivers/src/at32f435_437_adc.c **** }
 110              		.loc 1 88 1 view .LVU17
 111 000c 7047     		bx	lr
 112              		.cfi_endproc
 113              	.LFE135:
 115              		.section	.text.adc_base_config,"ax",%progbits
 116              		.align	1
 117              		.global	adc_base_config
 118              		.syntax unified
 119              		.thumb
 120              		.thumb_func
 122              	adc_base_config:
 123              	.LVL4:
 124              	.LFB136:
  89:bsp/libraries/drivers/src/at32f435_437_adc.c **** 
  90:bsp/libraries/drivers/src/at32f435_437_adc.c **** /**
  91:bsp/libraries/drivers/src/at32f435_437_adc.c ****   * @brief  initialize the adc peripheral according to the specified parameters.
  92:bsp/libraries/drivers/src/at32f435_437_adc.c ****   * @param  adc_x: select the adc peripheral.
  93:bsp/libraries/drivers/src/at32f435_437_adc.c ****   *         this parameter can be one of the following values:
  94:bsp/libraries/drivers/src/at32f435_437_adc.c ****   *         - ADC1, ADC2, ADC3.
  95:bsp/libraries/drivers/src/at32f435_437_adc.c ****   * @param  sequence_mode: set the state of adc sequence mode.
  96:bsp/libraries/drivers/src/at32f435_437_adc.c ****   *         this parameter can be:TRUE or FALSE
  97:bsp/libraries/drivers/src/at32f435_437_adc.c ****   * @param  repeat_mode: set the state of adc repeat conversion mode.
  98:bsp/libraries/drivers/src/at32f435_437_adc.c ****   *         this parameter can be:TRUE or FALSE
  99:bsp/libraries/drivers/src/at32f435_437_adc.c ****   * @param  data_align: set the state of adc data alignment.
 100:bsp/libraries/drivers/src/at32f435_437_adc.c ****   *         this parameter can be one of the following values:
 101:bsp/libraries/drivers/src/at32f435_437_adc.c ****   *         - ADC_RIGHT_ALIGNMENT
 102:bsp/libraries/drivers/src/at32f435_437_adc.c ****   *         - ADC_LEFT_ALIGNMENT
 103:bsp/libraries/drivers/src/at32f435_437_adc.c ****   * @param  ordinary_channel_length: configure the adc ordinary channel sequence length.
 104:bsp/libraries/drivers/src/at32f435_437_adc.c ****   *         this parameter can be:
 105:bsp/libraries/drivers/src/at32f435_437_adc.c ****   *         - (0x1~0x10)
 106:bsp/libraries/drivers/src/at32f435_437_adc.c ****   * @retval none
 107:bsp/libraries/drivers/src/at32f435_437_adc.c ****   */
 108:bsp/libraries/drivers/src/at32f435_437_adc.c **** void adc_base_config(adc_type *adc_x, adc_base_config_type *adc_base_struct)
 109:bsp/libraries/drivers/src/at32f435_437_adc.c **** {
 125              		.loc 1 109 1 is_stmt 1 view -0
 126              		.cfi_startproc
ARM GAS  C:\Users\user\AppData\Local\Temp\ccXUtaRu.s 			page 5


 127              		@ args = 0, pretend = 0, frame = 0
 128              		@ frame_needed = 0, uses_anonymous_args = 0
 129              		@ link register save eliminated.
 110:bsp/libraries/drivers/src/at32f435_437_adc.c ****   adc_x->ctrl1_bit.sqen = adc_base_struct->sequence_mode;
 130              		.loc 1 110 3 view .LVU19
 131              		.loc 1 110 42 is_stmt 0 view .LVU20
 132 0000 0A78     		ldrb	r2, [r1]	@ zero_extendqisi2
 133              		.loc 1 110 25 view .LVU21
 134 0002 4368     		ldr	r3, [r0, #4]
 135 0004 62F30823 		bfi	r3, r2, #8, #1
 136 0008 4360     		str	r3, [r0, #4]
 111:bsp/libraries/drivers/src/at32f435_437_adc.c ****   adc_x->ctrl2_bit.rpen = adc_base_struct->repeat_mode;
 137              		.loc 1 111 3 is_stmt 1 view .LVU22
 138              		.loc 1 111 42 is_stmt 0 view .LVU23
 139 000a 4A78     		ldrb	r2, [r1, #1]	@ zero_extendqisi2
 140              		.loc 1 111 25 view .LVU24
 141 000c 8368     		ldr	r3, [r0, #8]
 142 000e 62F34103 		bfi	r3, r2, #1, #1
 143 0012 8360     		str	r3, [r0, #8]
 112:bsp/libraries/drivers/src/at32f435_437_adc.c ****   adc_x->ctrl2_bit.dtalign = adc_base_struct->data_align;
 144              		.loc 1 112 3 is_stmt 1 view .LVU25
 145              		.loc 1 112 45 is_stmt 0 view .LVU26
 146 0014 8A78     		ldrb	r2, [r1, #2]	@ zero_extendqisi2
 147              		.loc 1 112 28 view .LVU27
 148 0016 8368     		ldr	r3, [r0, #8]
 149 0018 62F3CB23 		bfi	r3, r2, #11, #1
 150 001c 8360     		str	r3, [r0, #8]
 113:bsp/libraries/drivers/src/at32f435_437_adc.c ****   adc_x->osq1_bit.oclen = adc_base_struct->ordinary_channel_length - 1;
 151              		.loc 1 113 3 is_stmt 1 view .LVU28
 152              		.loc 1 113 42 is_stmt 0 view .LVU29
 153 001e CB78     		ldrb	r3, [r1, #3]	@ zero_extendqisi2
 154              		.loc 1 113 68 view .LVU30
 155 0020 013B     		subs	r3, r3, #1
 156              		.loc 1 113 25 view .LVU31
 157 0022 C26A     		ldr	r2, [r0, #44]
 158 0024 63F31752 		bfi	r2, r3, #20, #4
 159 0028 C262     		str	r2, [r0, #44]
 114:bsp/libraries/drivers/src/at32f435_437_adc.c **** }
 160              		.loc 1 114 1 view .LVU32
 161 002a 7047     		bx	lr
 162              		.cfi_endproc
 163              	.LFE136:
 165              		.section	.text.adc_common_default_para_init,"ax",%progbits
 166              		.align	1
 167              		.global	adc_common_default_para_init
 168              		.syntax unified
 169              		.thumb
 170              		.thumb_func
 172              	adc_common_default_para_init:
 173              	.LVL5:
 174              	.LFB137:
 115:bsp/libraries/drivers/src/at32f435_437_adc.c **** 
 116:bsp/libraries/drivers/src/at32f435_437_adc.c **** /**
 117:bsp/libraries/drivers/src/at32f435_437_adc.c ****   * @brief  adc common default para init.
 118:bsp/libraries/drivers/src/at32f435_437_adc.c ****   * @param  combine_mode: configure the adc combine_mode mode.
 119:bsp/libraries/drivers/src/at32f435_437_adc.c ****   *         this parameter can be one of the following values:
 120:bsp/libraries/drivers/src/at32f435_437_adc.c ****   *         - ADC_INDEPENDENT_MODE                       - ADC_ORDINARY_SMLT_PREEMPT_SMLT_ONESLAVE_
ARM GAS  C:\Users\user\AppData\Local\Temp\ccXUtaRu.s 			page 6


 121:bsp/libraries/drivers/src/at32f435_437_adc.c ****   *         - ADC_PREEMPT_SMLT_ONLY_ONESLAVE_MODE        - ADC_ORDINARY_SMLT_ONLY_ONESLAVE_MODE    
 122:bsp/libraries/drivers/src/at32f435_437_adc.c ****   *         - ADC_PREEMPT_INTERLTRIG_ONLY_ONESLAVE_MODE  - ADC_ORDINARY_SMLT_PREEMPT_SMLT_TWOSLAVE_
 123:bsp/libraries/drivers/src/at32f435_437_adc.c ****   *         - ADC_PREEMPT_SMLT_ONLY_TWOSLAVE_MODE        - ADC_ORDINARY_SMLT_ONLY_TWOSLAVE_MODE    
 124:bsp/libraries/drivers/src/at32f435_437_adc.c ****   *         - ADC_PREEMPT_INTERLTRIG_ONLY_TWOSLAVE_MODE
 125:bsp/libraries/drivers/src/at32f435_437_adc.c ****   * @param  div: configure the adc division.
 126:bsp/libraries/drivers/src/at32f435_437_adc.c ****   *         this parameter can be one of the following values:
 127:bsp/libraries/drivers/src/at32f435_437_adc.c ****   *         - ADC_HCLK_DIV_2             - ADC_HCLK_DIV_3             - ADC_HCLK_DIV_4             
 128:bsp/libraries/drivers/src/at32f435_437_adc.c ****   *         - ADC_HCLK_DIV_6             - ADC_HCLK_DIV_7             - ADC_HCLK_DIV_8             
 129:bsp/libraries/drivers/src/at32f435_437_adc.c ****   *         - ADC_HCLK_DIV_10            - ADC_HCLK_DIV_11            - ADC_HCLK_DIV_12            
 130:bsp/libraries/drivers/src/at32f435_437_adc.c ****   *         - ADC_HCLK_DIV_14            - ADC_HCLK_DIV_15            - ADC_HCLK_DIV_16            
 131:bsp/libraries/drivers/src/at32f435_437_adc.c ****   * @param  common_dma_mode: configure the adc common dma mode.
 132:bsp/libraries/drivers/src/at32f435_437_adc.c ****   *         this parameter can be one of the following values:
 133:bsp/libraries/drivers/src/at32f435_437_adc.c ****   *         - ADC_COMMON_DMAMODE_DISABLE
 134:bsp/libraries/drivers/src/at32f435_437_adc.c ****   *         - ADC_COMMON_DMAMODE_1 <mode 1 can be used: all ordinary simultaneous mode,all ordinary
 135:bsp/libraries/drivers/src/at32f435_437_adc.c ****   *         - ADC_COMMON_DMAMODE_2 <mode 2 can be used: one slaver ordinary simultaneous mode,all o
 136:bsp/libraries/drivers/src/at32f435_437_adc.c ****   *         - ADC_COMMON_DMAMODE_3 <mode 3 can be used: one slaver ordinary simultaneous mode in 6/
 137:bsp/libraries/drivers/src/at32f435_437_adc.c ****   *         - ADC_COMMON_DMAMODE_4 <mode 4 can be used: two slaver ordinary simultaneous mode in 6/
 138:bsp/libraries/drivers/src/at32f435_437_adc.c ****   *         - ADC_COMMON_DMAMODE_5 <mode 5 can be used: all two slaver ordinary simultaneous mode,a
 139:bsp/libraries/drivers/src/at32f435_437_adc.c ****   * @param  common_dma_request_repeat_state: set the adc common dma request repeat state.
 140:bsp/libraries/drivers/src/at32f435_437_adc.c ****   *         this parameter can be:TRUE or FALSE
 141:bsp/libraries/drivers/src/at32f435_437_adc.c ****   * @param  sampling_interval: configure the ordinary shifting mode adjacent adc sampling interval.
 142:bsp/libraries/drivers/src/at32f435_437_adc.c ****   *         this parameter can be one of the following values:
 143:bsp/libraries/drivers/src/at32f435_437_adc.c ****   *         - ADC_SAMPLING_INTERVAL_5CYCLES     - ADC_SAMPLING_INTERVAL_6CYCLES     - ADC_SAMPLING_
 144:bsp/libraries/drivers/src/at32f435_437_adc.c ****   *         - ADC_SAMPLING_INTERVAL_9CYCLES     - ADC_SAMPLING_INTERVAL_10CYCLES    - ADC_SAMPLING_
 145:bsp/libraries/drivers/src/at32f435_437_adc.c ****   *         - ADC_SAMPLING_INTERVAL_13CYCLES    - ADC_SAMPLING_INTERVAL_14CYCLES    - ADC_SAMPLING_
 146:bsp/libraries/drivers/src/at32f435_437_adc.c ****   *         - ADC_SAMPLING_INTERVAL_17CYCLES    - ADC_SAMPLING_INTERVAL_18CYCLES    - ADC_SAMPLING_
 147:bsp/libraries/drivers/src/at32f435_437_adc.c ****   * @param  tempervintrv_state: set the adc temperature sensor and vintrv state.
 148:bsp/libraries/drivers/src/at32f435_437_adc.c ****   *         this parameter can be:TRUE or FALSE
 149:bsp/libraries/drivers/src/at32f435_437_adc.c ****   * @param  vbat_state: set the adc voltage battery state.
 150:bsp/libraries/drivers/src/at32f435_437_adc.c ****   *         this parameter can be:TRUE or FALSE
 151:bsp/libraries/drivers/src/at32f435_437_adc.c ****   * @retval none
 152:bsp/libraries/drivers/src/at32f435_437_adc.c ****   */
 153:bsp/libraries/drivers/src/at32f435_437_adc.c **** void adc_common_default_para_init(adc_common_config_type *adc_common_struct)
 154:bsp/libraries/drivers/src/at32f435_437_adc.c **** {
 175              		.loc 1 154 1 is_stmt 1 view -0
 176              		.cfi_startproc
 177              		@ args = 0, pretend = 0, frame = 0
 178              		@ frame_needed = 0, uses_anonymous_args = 0
 179              		@ link register save eliminated.
 155:bsp/libraries/drivers/src/at32f435_437_adc.c ****   adc_common_struct->combine_mode = ADC_INDEPENDENT_MODE;
 180              		.loc 1 155 3 view .LVU34
 181              		.loc 1 155 35 is_stmt 0 view .LVU35
 182 0000 0023     		movs	r3, #0
 183 0002 0370     		strb	r3, [r0]
 156:bsp/libraries/drivers/src/at32f435_437_adc.c ****   adc_common_struct->div = ADC_HCLK_DIV_2;
 184              		.loc 1 156 3 is_stmt 1 view .LVU36
 185              		.loc 1 156 26 is_stmt 0 view .LVU37
 186 0004 4370     		strb	r3, [r0, #1]
 157:bsp/libraries/drivers/src/at32f435_437_adc.c ****   adc_common_struct->common_dma_mode = ADC_COMMON_DMAMODE_DISABLE;
 187              		.loc 1 157 3 is_stmt 1 view .LVU38
 188              		.loc 1 157 38 is_stmt 0 view .LVU39
 189 0006 8370     		strb	r3, [r0, #2]
 158:bsp/libraries/drivers/src/at32f435_437_adc.c ****   adc_common_struct->common_dma_request_repeat_state = FALSE;
 190              		.loc 1 158 3 is_stmt 1 view .LVU40
 191              		.loc 1 158 54 is_stmt 0 view .LVU41
 192 0008 C370     		strb	r3, [r0, #3]
 159:bsp/libraries/drivers/src/at32f435_437_adc.c ****   adc_common_struct->sampling_interval = ADC_SAMPLING_INTERVAL_5CYCLES;
ARM GAS  C:\Users\user\AppData\Local\Temp\ccXUtaRu.s 			page 7


 193              		.loc 1 159 3 is_stmt 1 view .LVU42
 194              		.loc 1 159 40 is_stmt 0 view .LVU43
 195 000a 0371     		strb	r3, [r0, #4]
 160:bsp/libraries/drivers/src/at32f435_437_adc.c ****   adc_common_struct->tempervintrv_state = FALSE;
 196              		.loc 1 160 3 is_stmt 1 view .LVU44
 197              		.loc 1 160 41 is_stmt 0 view .LVU45
 198 000c 4371     		strb	r3, [r0, #5]
 161:bsp/libraries/drivers/src/at32f435_437_adc.c ****   adc_common_struct->vbat_state = FALSE;
 199              		.loc 1 161 3 is_stmt 1 view .LVU46
 200              		.loc 1 161 33 is_stmt 0 view .LVU47
 201 000e 8371     		strb	r3, [r0, #6]
 162:bsp/libraries/drivers/src/at32f435_437_adc.c **** }
 202              		.loc 1 162 1 view .LVU48
 203 0010 7047     		bx	lr
 204              		.cfi_endproc
 205              	.LFE137:
 207              		.section	.text.adc_common_config,"ax",%progbits
 208              		.align	1
 209              		.global	adc_common_config
 210              		.syntax unified
 211              		.thumb
 212              		.thumb_func
 214              	adc_common_config:
 215              	.LVL6:
 216              	.LFB138:
 163:bsp/libraries/drivers/src/at32f435_437_adc.c **** 
 164:bsp/libraries/drivers/src/at32f435_437_adc.c **** /**
 165:bsp/libraries/drivers/src/at32f435_437_adc.c ****   * @brief  adc common default para init.
 166:bsp/libraries/drivers/src/at32f435_437_adc.c ****   * @param  combine_mode: configure the adc combine_mode mode.
 167:bsp/libraries/drivers/src/at32f435_437_adc.c ****   *         this parameter can be one of the following values:
 168:bsp/libraries/drivers/src/at32f435_437_adc.c ****   *         - ADC_INDEPENDENT_MODE                       - ADC_ORDINARY_SMLT_PREEMPT_SMLT_ONESLAVE_
 169:bsp/libraries/drivers/src/at32f435_437_adc.c ****   *         - ADC_PREEMPT_SMLT_ONLY_ONESLAVE_MODE        - ADC_ORDINARY_SMLT_ONLY_ONESLAVE_MODE    
 170:bsp/libraries/drivers/src/at32f435_437_adc.c ****   *         - ADC_PREEMPT_INTERLTRIG_ONLY_ONESLAVE_MODE  - ADC_ORDINARY_SMLT_PREEMPT_SMLT_TWOSLAVE_
 171:bsp/libraries/drivers/src/at32f435_437_adc.c ****   *         - ADC_PREEMPT_SMLT_ONLY_TWOSLAVE_MODE        - ADC_ORDINARY_SMLT_ONLY_TWOSLAVE_MODE    
 172:bsp/libraries/drivers/src/at32f435_437_adc.c ****   *         - ADC_PREEMPT_INTERLTRIG_ONLY_TWOSLAVE_MODE
 173:bsp/libraries/drivers/src/at32f435_437_adc.c ****   * @param  div: configure the adc division.
 174:bsp/libraries/drivers/src/at32f435_437_adc.c ****   *         this parameter can be one of the following values:
 175:bsp/libraries/drivers/src/at32f435_437_adc.c ****   *         - ADC_HCLK_DIV_2             - ADC_HCLK_DIV_3             - ADC_HCLK_DIV_4             
 176:bsp/libraries/drivers/src/at32f435_437_adc.c ****   *         - ADC_HCLK_DIV_6             - ADC_HCLK_DIV_7             - ADC_HCLK_DIV_8             
 177:bsp/libraries/drivers/src/at32f435_437_adc.c ****   *         - ADC_HCLK_DIV_10            - ADC_HCLK_DIV_11            - ADC_HCLK_DIV_12            
 178:bsp/libraries/drivers/src/at32f435_437_adc.c ****   *         - ADC_HCLK_DIV_14            - ADC_HCLK_DIV_15            - ADC_HCLK_DIV_16            
 179:bsp/libraries/drivers/src/at32f435_437_adc.c ****   * @param  common_dma_mode: configure the adc common dma mode.
 180:bsp/libraries/drivers/src/at32f435_437_adc.c ****   *         this parameter can be one of the following values:
 181:bsp/libraries/drivers/src/at32f435_437_adc.c ****   *         - ADC_COMMON_DMAMODE_DISABLE
 182:bsp/libraries/drivers/src/at32f435_437_adc.c ****   *         - ADC_COMMON_DMAMODE_1 <mode 1 can be used: all ordinary simultaneous mode,all ordinary
 183:bsp/libraries/drivers/src/at32f435_437_adc.c ****   *         - ADC_COMMON_DMAMODE_2 <mode 2 can be used: one slaver ordinary simultaneous mode,all o
 184:bsp/libraries/drivers/src/at32f435_437_adc.c ****   *         - ADC_COMMON_DMAMODE_3 <mode 3 can be used: one slaver ordinary simultaneous mode in 6/
 185:bsp/libraries/drivers/src/at32f435_437_adc.c ****   *         - ADC_COMMON_DMAMODE_4 <mode 4 can be used: two slaver ordinary simultaneous mode in 6/
 186:bsp/libraries/drivers/src/at32f435_437_adc.c ****   *         - ADC_COMMON_DMAMODE_5 <mode 5 can be used: all two slaver ordinary simultaneous mode,a
 187:bsp/libraries/drivers/src/at32f435_437_adc.c ****   * @param  common_dma_request_repeat_state: set the adc common dma request repeat state.
 188:bsp/libraries/drivers/src/at32f435_437_adc.c ****   *         this parameter can be:TRUE or FALSE
 189:bsp/libraries/drivers/src/at32f435_437_adc.c ****   * @param  sampling_interval: configure the ordinary shifting mode adjacent adc sampling interval.
 190:bsp/libraries/drivers/src/at32f435_437_adc.c ****   *         this parameter can be one of the following values:
 191:bsp/libraries/drivers/src/at32f435_437_adc.c ****   *         - ADC_SAMPLING_INTERVAL_5CYCLES     - ADC_SAMPLING_INTERVAL_6CYCLES     - ADC_SAMPLING_
 192:bsp/libraries/drivers/src/at32f435_437_adc.c ****   *         - ADC_SAMPLING_INTERVAL_9CYCLES     - ADC_SAMPLING_INTERVAL_10CYCLES    - ADC_SAMPLING_
 193:bsp/libraries/drivers/src/at32f435_437_adc.c ****   *         - ADC_SAMPLING_INTERVAL_13CYCLES    - ADC_SAMPLING_INTERVAL_14CYCLES    - ADC_SAMPLING_
 194:bsp/libraries/drivers/src/at32f435_437_adc.c ****   *         - ADC_SAMPLING_INTERVAL_17CYCLES    - ADC_SAMPLING_INTERVAL_18CYCLES    - ADC_SAMPLING_
ARM GAS  C:\Users\user\AppData\Local\Temp\ccXUtaRu.s 			page 8


 195:bsp/libraries/drivers/src/at32f435_437_adc.c ****   * @param  tempervintrv_state: set the adc temperature sensor and vintrv state.
 196:bsp/libraries/drivers/src/at32f435_437_adc.c ****   *         this parameter can be:TRUE or FALSE
 197:bsp/libraries/drivers/src/at32f435_437_adc.c ****   * @param  vbat_state: set the adc voltage battery state.
 198:bsp/libraries/drivers/src/at32f435_437_adc.c ****   *         this parameter can be:TRUE or FALSE
 199:bsp/libraries/drivers/src/at32f435_437_adc.c ****   * @retval none
 200:bsp/libraries/drivers/src/at32f435_437_adc.c ****   */
 201:bsp/libraries/drivers/src/at32f435_437_adc.c **** void adc_common_config(adc_common_config_type *adc_common_struct)
 202:bsp/libraries/drivers/src/at32f435_437_adc.c **** {
 217              		.loc 1 202 1 is_stmt 1 view -0
 218              		.cfi_startproc
 219              		@ args = 0, pretend = 0, frame = 0
 220              		@ frame_needed = 0, uses_anonymous_args = 0
 221              		@ link register save eliminated.
 203:bsp/libraries/drivers/src/at32f435_437_adc.c ****   ADCCOM->cctrl_bit.mssel = adc_common_struct->combine_mode;
 222              		.loc 1 203 3 view .LVU50
 223              		.loc 1 203 46 is_stmt 0 view .LVU51
 224 0000 0178     		ldrb	r1, [r0]	@ zero_extendqisi2
 225              		.loc 1 203 27 view .LVU52
 226 0002 1A4B     		ldr	r3, .L12
 227 0004 5A68     		ldr	r2, [r3, #4]
 228 0006 61F30402 		bfi	r2, r1, #0, #5
 229 000a 5A60     		str	r2, [r3, #4]
 204:bsp/libraries/drivers/src/at32f435_437_adc.c ****   ADCCOM->cctrl_bit.adcdiv = adc_common_struct->div;
 230              		.loc 1 204 3 is_stmt 1 view .LVU53
 231              		.loc 1 204 47 is_stmt 0 view .LVU54
 232 000c 4178     		ldrb	r1, [r0, #1]	@ zero_extendqisi2
 233              		.loc 1 204 28 view .LVU55
 234 000e 5A68     		ldr	r2, [r3, #4]
 235 0010 61F31342 		bfi	r2, r1, #16, #4
 236 0014 5A60     		str	r2, [r3, #4]
 205:bsp/libraries/drivers/src/at32f435_437_adc.c ****   if(adc_common_struct->common_dma_mode & 0x04)
 237              		.loc 1 205 3 is_stmt 1 view .LVU56
 238              		.loc 1 205 23 is_stmt 0 view .LVU57
 239 0016 8378     		ldrb	r3, [r0, #2]	@ zero_extendqisi2
 240              		.loc 1 205 5 view .LVU58
 241 0018 13F0040F 		tst	r3, #4
 242 001c 1FD0     		beq	.L10
 206:bsp/libraries/drivers/src/at32f435_437_adc.c ****   {
 207:bsp/libraries/drivers/src/at32f435_437_adc.c ****     ADCCOM->cctrl_bit.msdmasel_h = TRUE;
 243              		.loc 1 207 5 is_stmt 1 view .LVU59
 244              		.loc 1 207 34 is_stmt 0 view .LVU60
 245 001e 134A     		ldr	r2, .L12
 246 0020 5368     		ldr	r3, [r2, #4]
 247 0022 43F08053 		orr	r3, r3, #268435456
 248 0026 5360     		str	r3, [r2, #4]
 249              	.L11:
 208:bsp/libraries/drivers/src/at32f435_437_adc.c ****   }
 209:bsp/libraries/drivers/src/at32f435_437_adc.c ****   else
 210:bsp/libraries/drivers/src/at32f435_437_adc.c ****   {
 211:bsp/libraries/drivers/src/at32f435_437_adc.c ****     ADCCOM->cctrl_bit.msdmasel_h = FALSE;
 212:bsp/libraries/drivers/src/at32f435_437_adc.c ****   }
 213:bsp/libraries/drivers/src/at32f435_437_adc.c ****   ADCCOM->cctrl_bit.msdmasel_l = adc_common_struct->common_dma_mode &0x03;
 250              		.loc 1 213 3 is_stmt 1 view .LVU61
 251              		.loc 1 213 51 is_stmt 0 view .LVU62
 252 0028 8178     		ldrb	r1, [r0, #2]	@ zero_extendqisi2
 253              		.loc 1 213 32 view .LVU63
 254 002a 104B     		ldr	r3, .L12
ARM GAS  C:\Users\user\AppData\Local\Temp\ccXUtaRu.s 			page 9


 255 002c 5A68     		ldr	r2, [r3, #4]
 256 002e 61F38F32 		bfi	r2, r1, #14, #2
 257 0032 5A60     		str	r2, [r3, #4]
 214:bsp/libraries/drivers/src/at32f435_437_adc.c ****   ADCCOM->cctrl_bit.msdrcen = adc_common_struct->common_dma_request_repeat_state;
 258              		.loc 1 214 3 is_stmt 1 view .LVU64
 259              		.loc 1 214 48 is_stmt 0 view .LVU65
 260 0034 C178     		ldrb	r1, [r0, #3]	@ zero_extendqisi2
 261              		.loc 1 214 29 view .LVU66
 262 0036 5A68     		ldr	r2, [r3, #4]
 263 0038 61F34D32 		bfi	r2, r1, #13, #1
 264 003c 5A60     		str	r2, [r3, #4]
 215:bsp/libraries/drivers/src/at32f435_437_adc.c ****   ADCCOM->cctrl_bit.asisel = adc_common_struct->sampling_interval;
 265              		.loc 1 215 3 is_stmt 1 view .LVU67
 266              		.loc 1 215 47 is_stmt 0 view .LVU68
 267 003e 0179     		ldrb	r1, [r0, #4]	@ zero_extendqisi2
 268              		.loc 1 215 28 view .LVU69
 269 0040 5A68     		ldr	r2, [r3, #4]
 270 0042 61F30B22 		bfi	r2, r1, #8, #4
 271 0046 5A60     		str	r2, [r3, #4]
 216:bsp/libraries/drivers/src/at32f435_437_adc.c ****   ADCCOM->cctrl_bit.itsrven = adc_common_struct->tempervintrv_state;
 272              		.loc 1 216 3 is_stmt 1 view .LVU70
 273              		.loc 1 216 48 is_stmt 0 view .LVU71
 274 0048 4179     		ldrb	r1, [r0, #5]	@ zero_extendqisi2
 275              		.loc 1 216 29 view .LVU72
 276 004a 5A68     		ldr	r2, [r3, #4]
 277 004c 61F3D752 		bfi	r2, r1, #23, #1
 278 0050 5A60     		str	r2, [r3, #4]
 217:bsp/libraries/drivers/src/at32f435_437_adc.c ****   ADCCOM->cctrl_bit.vbaten = adc_common_struct->vbat_state;
 279              		.loc 1 217 3 is_stmt 1 view .LVU73
 280              		.loc 1 217 47 is_stmt 0 view .LVU74
 281 0052 8179     		ldrb	r1, [r0, #6]	@ zero_extendqisi2
 282              		.loc 1 217 28 view .LVU75
 283 0054 5A68     		ldr	r2, [r3, #4]
 284 0056 61F39652 		bfi	r2, r1, #22, #1
 285 005a 5A60     		str	r2, [r3, #4]
 218:bsp/libraries/drivers/src/at32f435_437_adc.c **** }
 286              		.loc 1 218 1 view .LVU76
 287 005c 7047     		bx	lr
 288              	.L10:
 211:bsp/libraries/drivers/src/at32f435_437_adc.c ****   }
 289              		.loc 1 211 5 is_stmt 1 view .LVU77
 211:bsp/libraries/drivers/src/at32f435_437_adc.c ****   }
 290              		.loc 1 211 34 is_stmt 0 view .LVU78
 291 005e 034B     		ldr	r3, .L12
 292 0060 5A68     		ldr	r2, [r3, #4]
 293 0062 6FF31C72 		bfc	r2, #28, #1
 294 0066 5A60     		str	r2, [r3, #4]
 295 0068 DEE7     		b	.L11
 296              	.L13:
 297 006a 00BF     		.align	2
 298              	.L12:
 299 006c 00230140 		.word	1073816320
 300              		.cfi_endproc
 301              	.LFE138:
 303              		.section	.text.adc_resolution_set,"ax",%progbits
 304              		.align	1
 305              		.global	adc_resolution_set
ARM GAS  C:\Users\user\AppData\Local\Temp\ccXUtaRu.s 			page 10


 306              		.syntax unified
 307              		.thumb
 308              		.thumb_func
 310              	adc_resolution_set:
 311              	.LVL7:
 312              	.LFB139:
 219:bsp/libraries/drivers/src/at32f435_437_adc.c **** 
 220:bsp/libraries/drivers/src/at32f435_437_adc.c **** /**
 221:bsp/libraries/drivers/src/at32f435_437_adc.c ****   * @brief  set resolution of the specified adc peripheral.
 222:bsp/libraries/drivers/src/at32f435_437_adc.c ****   * @param  adc_x: select the adc peripheral.
 223:bsp/libraries/drivers/src/at32f435_437_adc.c ****   *         this parameter can be one of the following values:
 224:bsp/libraries/drivers/src/at32f435_437_adc.c ****   *         - ADC1, ADC2, ADC3.
 225:bsp/libraries/drivers/src/at32f435_437_adc.c ****   * @param  resolution: set the conversion resolution.
 226:bsp/libraries/drivers/src/at32f435_437_adc.c ****   *         this parameter can be one of the following values:
 227:bsp/libraries/drivers/src/at32f435_437_adc.c ****   *         - ADC_RESOLUTION_12B
 228:bsp/libraries/drivers/src/at32f435_437_adc.c ****   *         - ADC_RESOLUTION_10B
 229:bsp/libraries/drivers/src/at32f435_437_adc.c ****   *         - ADC_RESOLUTION_8B
 230:bsp/libraries/drivers/src/at32f435_437_adc.c ****   *         - ADC_RESOLUTION_6B
 231:bsp/libraries/drivers/src/at32f435_437_adc.c ****   * @retval none
 232:bsp/libraries/drivers/src/at32f435_437_adc.c ****   */
 233:bsp/libraries/drivers/src/at32f435_437_adc.c **** void adc_resolution_set(adc_type *adc_x, adc_resolution_type resolution)
 234:bsp/libraries/drivers/src/at32f435_437_adc.c **** {
 313              		.loc 1 234 1 is_stmt 1 view -0
 314              		.cfi_startproc
 315              		@ args = 0, pretend = 0, frame = 0
 316              		@ frame_needed = 0, uses_anonymous_args = 0
 317              		@ link register save eliminated.
 235:bsp/libraries/drivers/src/at32f435_437_adc.c ****   adc_x->ctrl1_bit.crsel = resolution;
 318              		.loc 1 235 3 view .LVU80
 319              		.loc 1 235 26 is_stmt 0 view .LVU81
 320 0000 4368     		ldr	r3, [r0, #4]
 321 0002 61F31963 		bfi	r3, r1, #24, #2
 322 0006 4360     		str	r3, [r0, #4]
 236:bsp/libraries/drivers/src/at32f435_437_adc.c **** }
 323              		.loc 1 236 1 view .LVU82
 324 0008 7047     		bx	lr
 325              		.cfi_endproc
 326              	.LFE139:
 328              		.section	.text.adc_voltage_battery_enable,"ax",%progbits
 329              		.align	1
 330              		.global	adc_voltage_battery_enable
 331              		.syntax unified
 332              		.thumb
 333              		.thumb_func
 335              	adc_voltage_battery_enable:
 336              	.LVL8:
 337              	.LFB140:
 237:bsp/libraries/drivers/src/at32f435_437_adc.c **** 
 238:bsp/libraries/drivers/src/at32f435_437_adc.c **** /**
 239:bsp/libraries/drivers/src/at32f435_437_adc.c ****   * @brief  enable or disable the adc voltage battery.
 240:bsp/libraries/drivers/src/at32f435_437_adc.c ****   * @param  new_state: new state of the adc voltage battery.
 241:bsp/libraries/drivers/src/at32f435_437_adc.c ****   *         this parameter can be: TRUE or FALSE.
 242:bsp/libraries/drivers/src/at32f435_437_adc.c ****   * @retval none
 243:bsp/libraries/drivers/src/at32f435_437_adc.c ****   */
 244:bsp/libraries/drivers/src/at32f435_437_adc.c **** void adc_voltage_battery_enable(confirm_state new_state)
 245:bsp/libraries/drivers/src/at32f435_437_adc.c **** {
 338              		.loc 1 245 1 is_stmt 1 view -0
ARM GAS  C:\Users\user\AppData\Local\Temp\ccXUtaRu.s 			page 11


 339              		.cfi_startproc
 340              		@ args = 0, pretend = 0, frame = 0
 341              		@ frame_needed = 0, uses_anonymous_args = 0
 342              		@ link register save eliminated.
 246:bsp/libraries/drivers/src/at32f435_437_adc.c ****   ADCCOM->cctrl_bit.vbaten = new_state;
 343              		.loc 1 246 3 view .LVU84
 344              		.loc 1 246 28 is_stmt 0 view .LVU85
 345 0000 024B     		ldr	r3, .L16
 346 0002 5A68     		ldr	r2, [r3, #4]
 347 0004 60F39652 		bfi	r2, r0, #22, #1
 348 0008 5A60     		str	r2, [r3, #4]
 247:bsp/libraries/drivers/src/at32f435_437_adc.c **** }
 349              		.loc 1 247 1 view .LVU86
 350 000a 7047     		bx	lr
 351              	.L17:
 352              		.align	2
 353              	.L16:
 354 000c 00230140 		.word	1073816320
 355              		.cfi_endproc
 356              	.LFE140:
 358              		.section	.text.adc_dma_mode_enable,"ax",%progbits
 359              		.align	1
 360              		.global	adc_dma_mode_enable
 361              		.syntax unified
 362              		.thumb
 363              		.thumb_func
 365              	adc_dma_mode_enable:
 366              	.LVL9:
 367              	.LFB141:
 248:bsp/libraries/drivers/src/at32f435_437_adc.c **** 
 249:bsp/libraries/drivers/src/at32f435_437_adc.c **** /**
 250:bsp/libraries/drivers/src/at32f435_437_adc.c ****   * @brief  enable or disable the adc dma transfer.
 251:bsp/libraries/drivers/src/at32f435_437_adc.c ****   * @param  adc_x: select the adc peripheral.
 252:bsp/libraries/drivers/src/at32f435_437_adc.c ****   *         this parameter can be one of the following values:
 253:bsp/libraries/drivers/src/at32f435_437_adc.c ****   *         - ADC1, ADC2, ADC3.
 254:bsp/libraries/drivers/src/at32f435_437_adc.c ****   * @param  new_state: new state of the adc dma transfer.
 255:bsp/libraries/drivers/src/at32f435_437_adc.c ****   *         this parameter can be: TRUE or FALSE.
 256:bsp/libraries/drivers/src/at32f435_437_adc.c ****   * @retval none
 257:bsp/libraries/drivers/src/at32f435_437_adc.c ****   */
 258:bsp/libraries/drivers/src/at32f435_437_adc.c **** void adc_dma_mode_enable(adc_type *adc_x, confirm_state new_state)
 259:bsp/libraries/drivers/src/at32f435_437_adc.c **** {
 368              		.loc 1 259 1 is_stmt 1 view -0
 369              		.cfi_startproc
 370              		@ args = 0, pretend = 0, frame = 0
 371              		@ frame_needed = 0, uses_anonymous_args = 0
 372              		@ link register save eliminated.
 260:bsp/libraries/drivers/src/at32f435_437_adc.c ****   adc_x->ctrl2_bit.ocdmaen = new_state;
 373              		.loc 1 260 3 view .LVU88
 374              		.loc 1 260 28 is_stmt 0 view .LVU89
 375 0000 8368     		ldr	r3, [r0, #8]
 376 0002 61F30823 		bfi	r3, r1, #8, #1
 377 0006 8360     		str	r3, [r0, #8]
 261:bsp/libraries/drivers/src/at32f435_437_adc.c **** }
 378              		.loc 1 261 1 view .LVU90
 379 0008 7047     		bx	lr
 380              		.cfi_endproc
 381              	.LFE141:
ARM GAS  C:\Users\user\AppData\Local\Temp\ccXUtaRu.s 			page 12


 383              		.section	.text.adc_dma_request_repeat_enable,"ax",%progbits
 384              		.align	1
 385              		.global	adc_dma_request_repeat_enable
 386              		.syntax unified
 387              		.thumb
 388              		.thumb_func
 390              	adc_dma_request_repeat_enable:
 391              	.LVL10:
 392              	.LFB142:
 262:bsp/libraries/drivers/src/at32f435_437_adc.c **** 
 263:bsp/libraries/drivers/src/at32f435_437_adc.c **** /**
 264:bsp/libraries/drivers/src/at32f435_437_adc.c ****   * @brief  enable or disable the adc dma request repeat.
 265:bsp/libraries/drivers/src/at32f435_437_adc.c ****   * @param  adc_x: select the adc peripheral.
 266:bsp/libraries/drivers/src/at32f435_437_adc.c ****   *         this parameter can be one of the following values:
 267:bsp/libraries/drivers/src/at32f435_437_adc.c ****   *         - ADC1, ADC2, ADC3.
 268:bsp/libraries/drivers/src/at32f435_437_adc.c ****   * @param  new_state: the adc dma request repeat state.
 269:bsp/libraries/drivers/src/at32f435_437_adc.c ****   *         this parameter can be: TRUE or FALSE.
 270:bsp/libraries/drivers/src/at32f435_437_adc.c ****   * @retval none
 271:bsp/libraries/drivers/src/at32f435_437_adc.c ****   */
 272:bsp/libraries/drivers/src/at32f435_437_adc.c **** void adc_dma_request_repeat_enable(adc_type *adc_x, confirm_state new_state)
 273:bsp/libraries/drivers/src/at32f435_437_adc.c **** {
 393              		.loc 1 273 1 is_stmt 1 view -0
 394              		.cfi_startproc
 395              		@ args = 0, pretend = 0, frame = 0
 396              		@ frame_needed = 0, uses_anonymous_args = 0
 397              		@ link register save eliminated.
 274:bsp/libraries/drivers/src/at32f435_437_adc.c ****   adc_x->ctrl2_bit.ocdrcen = new_state;
 398              		.loc 1 274 3 view .LVU92
 399              		.loc 1 274 28 is_stmt 0 view .LVU93
 400 0000 8368     		ldr	r3, [r0, #8]
 401 0002 61F34923 		bfi	r3, r1, #9, #1
 402 0006 8360     		str	r3, [r0, #8]
 275:bsp/libraries/drivers/src/at32f435_437_adc.c **** }
 403              		.loc 1 275 1 view .LVU94
 404 0008 7047     		bx	lr
 405              		.cfi_endproc
 406              	.LFE142:
 408              		.section	.text.adc_interrupt_enable,"ax",%progbits
 409              		.align	1
 410              		.global	adc_interrupt_enable
 411              		.syntax unified
 412              		.thumb
 413              		.thumb_func
 415              	adc_interrupt_enable:
 416              	.LVL11:
 417              	.LFB143:
 276:bsp/libraries/drivers/src/at32f435_437_adc.c **** 
 277:bsp/libraries/drivers/src/at32f435_437_adc.c **** /**
 278:bsp/libraries/drivers/src/at32f435_437_adc.c ****   * @brief  enable or disable the specified adc interrupts.
 279:bsp/libraries/drivers/src/at32f435_437_adc.c ****   * @param  adc_x: select the adc peripheral.
 280:bsp/libraries/drivers/src/at32f435_437_adc.c ****   *         this parameter can be one of the following values:
 281:bsp/libraries/drivers/src/at32f435_437_adc.c ****   *         - ADC1, ADC2, ADC3.
 282:bsp/libraries/drivers/src/at32f435_437_adc.c ****   * @param  adc_int: specifies the adc interrupt sources to be enabled or disabled.
 283:bsp/libraries/drivers/src/at32f435_437_adc.c ****   *         this parameter can be one of the following values:
 284:bsp/libraries/drivers/src/at32f435_437_adc.c ****   *         - ADC_OCCE_INT
 285:bsp/libraries/drivers/src/at32f435_437_adc.c ****   *         - ADC_VMOR_INT
 286:bsp/libraries/drivers/src/at32f435_437_adc.c ****   *         - ADC_PCCE_INT
ARM GAS  C:\Users\user\AppData\Local\Temp\ccXUtaRu.s 			page 13


 287:bsp/libraries/drivers/src/at32f435_437_adc.c ****   *         - ADC_OCCO_INT
 288:bsp/libraries/drivers/src/at32f435_437_adc.c ****   * @param  new_state: new state of the specified adc interrupts.
 289:bsp/libraries/drivers/src/at32f435_437_adc.c ****   *         this parameter can be: TRUE or FALSE.
 290:bsp/libraries/drivers/src/at32f435_437_adc.c ****   * @retval none
 291:bsp/libraries/drivers/src/at32f435_437_adc.c ****   */
 292:bsp/libraries/drivers/src/at32f435_437_adc.c **** void adc_interrupt_enable(adc_type *adc_x, uint32_t adc_int, confirm_state new_state)
 293:bsp/libraries/drivers/src/at32f435_437_adc.c **** {
 418              		.loc 1 293 1 is_stmt 1 view -0
 419              		.cfi_startproc
 420              		@ args = 0, pretend = 0, frame = 0
 421              		@ frame_needed = 0, uses_anonymous_args = 0
 422              		@ link register save eliminated.
 294:bsp/libraries/drivers/src/at32f435_437_adc.c ****   if(new_state == TRUE)
 423              		.loc 1 294 3 view .LVU96
 424              		.loc 1 294 5 is_stmt 0 view .LVU97
 425 0000 012A     		cmp	r2, #1
 426 0002 05D0     		beq	.L23
 295:bsp/libraries/drivers/src/at32f435_437_adc.c ****   {
 296:bsp/libraries/drivers/src/at32f435_437_adc.c ****     adc_x->ctrl1 |= adc_int;
 297:bsp/libraries/drivers/src/at32f435_437_adc.c ****   }
 298:bsp/libraries/drivers/src/at32f435_437_adc.c ****   else if(new_state == FALSE)
 427              		.loc 1 298 8 is_stmt 1 view .LVU98
 428              		.loc 1 298 10 is_stmt 0 view .LVU99
 429 0004 1AB9     		cbnz	r2, .L20
 299:bsp/libraries/drivers/src/at32f435_437_adc.c ****   {
 300:bsp/libraries/drivers/src/at32f435_437_adc.c ****     adc_x->ctrl1 &= ~adc_int;
 430              		.loc 1 300 5 is_stmt 1 view .LVU100
 431              		.loc 1 300 18 is_stmt 0 view .LVU101
 432 0006 4368     		ldr	r3, [r0, #4]
 433 0008 23EA0101 		bic	r1, r3, r1
 434              	.LVL12:
 435              		.loc 1 300 18 view .LVU102
 436 000c 4160     		str	r1, [r0, #4]
 437              	.L20:
 301:bsp/libraries/drivers/src/at32f435_437_adc.c ****   }
 302:bsp/libraries/drivers/src/at32f435_437_adc.c **** }
 438              		.loc 1 302 1 view .LVU103
 439 000e 7047     		bx	lr
 440              	.LVL13:
 441              	.L23:
 296:bsp/libraries/drivers/src/at32f435_437_adc.c ****   }
 442              		.loc 1 296 5 is_stmt 1 view .LVU104
 296:bsp/libraries/drivers/src/at32f435_437_adc.c ****   }
 443              		.loc 1 296 18 is_stmt 0 view .LVU105
 444 0010 4368     		ldr	r3, [r0, #4]
 445 0012 1943     		orrs	r1, r1, r3
 446              	.LVL14:
 296:bsp/libraries/drivers/src/at32f435_437_adc.c ****   }
 447              		.loc 1 296 18 view .LVU106
 448 0014 4160     		str	r1, [r0, #4]
 449 0016 7047     		bx	lr
 450              		.cfi_endproc
 451              	.LFE143:
 453              		.section	.text.adc_calibration_value_set,"ax",%progbits
 454              		.align	1
 455              		.global	adc_calibration_value_set
 456              		.syntax unified
ARM GAS  C:\Users\user\AppData\Local\Temp\ccXUtaRu.s 			page 14


 457              		.thumb
 458              		.thumb_func
 460              	adc_calibration_value_set:
 461              	.LVL15:
 462              	.LFB144:
 303:bsp/libraries/drivers/src/at32f435_437_adc.c **** 
 304:bsp/libraries/drivers/src/at32f435_437_adc.c **** /**
 305:bsp/libraries/drivers/src/at32f435_437_adc.c ****   * @brief  set calibration value of the specified adc peripheral.
 306:bsp/libraries/drivers/src/at32f435_437_adc.c ****   * @param  adc_x: select the adc peripheral.
 307:bsp/libraries/drivers/src/at32f435_437_adc.c ****   *         this parameter can be one of the following values:
 308:bsp/libraries/drivers/src/at32f435_437_adc.c ****   *         - ADC1, ADC2, ADC3.
 309:bsp/libraries/drivers/src/at32f435_437_adc.c ****   * @param  adc_calibration_value: calibration value of adc.
 310:bsp/libraries/drivers/src/at32f435_437_adc.c ****   *         this parameter can be:
 311:bsp/libraries/drivers/src/at32f435_437_adc.c ****   *         - (0x00~0x7F)
 312:bsp/libraries/drivers/src/at32f435_437_adc.c ****   * @retval none
 313:bsp/libraries/drivers/src/at32f435_437_adc.c ****   */
 314:bsp/libraries/drivers/src/at32f435_437_adc.c **** void adc_calibration_value_set(adc_type *adc_x, uint8_t adc_calibration_value)
 315:bsp/libraries/drivers/src/at32f435_437_adc.c **** {
 463              		.loc 1 315 1 is_stmt 1 view -0
 464              		.cfi_startproc
 465              		@ args = 0, pretend = 0, frame = 0
 466              		@ frame_needed = 0, uses_anonymous_args = 0
 467              		@ link register save eliminated.
 316:bsp/libraries/drivers/src/at32f435_437_adc.c ****   adc_x->calval = adc_calibration_value;
 468              		.loc 1 316 3 view .LVU108
 469              		.loc 1 316 17 is_stmt 0 view .LVU109
 470 0000 C0F8B410 		str	r1, [r0, #180]
 317:bsp/libraries/drivers/src/at32f435_437_adc.c **** }
 471              		.loc 1 317 1 view .LVU110
 472 0004 7047     		bx	lr
 473              		.cfi_endproc
 474              	.LFE144:
 476              		.section	.text.adc_calibration_init,"ax",%progbits
 477              		.align	1
 478              		.global	adc_calibration_init
 479              		.syntax unified
 480              		.thumb
 481              		.thumb_func
 483              	adc_calibration_init:
 484              	.LVL16:
 485              	.LFB145:
 318:bsp/libraries/drivers/src/at32f435_437_adc.c **** 
 319:bsp/libraries/drivers/src/at32f435_437_adc.c **** /**
 320:bsp/libraries/drivers/src/at32f435_437_adc.c ****   * @brief  initialize calibration register of the specified adc peripheral.
 321:bsp/libraries/drivers/src/at32f435_437_adc.c ****   * @param  adc_x: select the adc peripheral.
 322:bsp/libraries/drivers/src/at32f435_437_adc.c ****   *         this parameter can be one of the following values:
 323:bsp/libraries/drivers/src/at32f435_437_adc.c ****   *         - ADC1, ADC2, ADC3.
 324:bsp/libraries/drivers/src/at32f435_437_adc.c ****   * @retval none
 325:bsp/libraries/drivers/src/at32f435_437_adc.c ****   */
 326:bsp/libraries/drivers/src/at32f435_437_adc.c **** void adc_calibration_init(adc_type *adc_x)
 327:bsp/libraries/drivers/src/at32f435_437_adc.c **** {
 486              		.loc 1 327 1 is_stmt 1 view -0
 487              		.cfi_startproc
 488              		@ args = 0, pretend = 0, frame = 0
 489              		@ frame_needed = 0, uses_anonymous_args = 0
 490              		@ link register save eliminated.
 328:bsp/libraries/drivers/src/at32f435_437_adc.c ****   adc_x->ctrl2_bit.adcalinit = TRUE;
ARM GAS  C:\Users\user\AppData\Local\Temp\ccXUtaRu.s 			page 15


 491              		.loc 1 328 3 view .LVU112
 492              		.loc 1 328 30 is_stmt 0 view .LVU113
 493 0000 8368     		ldr	r3, [r0, #8]
 494 0002 43F00803 		orr	r3, r3, #8
 495 0006 8360     		str	r3, [r0, #8]
 329:bsp/libraries/drivers/src/at32f435_437_adc.c **** }
 496              		.loc 1 329 1 view .LVU114
 497 0008 7047     		bx	lr
 498              		.cfi_endproc
 499              	.LFE145:
 501              		.section	.text.adc_calibration_init_status_get,"ax",%progbits
 502              		.align	1
 503              		.global	adc_calibration_init_status_get
 504              		.syntax unified
 505              		.thumb
 506              		.thumb_func
 508              	adc_calibration_init_status_get:
 509              	.LVL17:
 510              	.LFB146:
 330:bsp/libraries/drivers/src/at32f435_437_adc.c **** 
 331:bsp/libraries/drivers/src/at32f435_437_adc.c **** /**
 332:bsp/libraries/drivers/src/at32f435_437_adc.c ****   * @brief  get calibration register's initialize status of the specified adc peripheral.
 333:bsp/libraries/drivers/src/at32f435_437_adc.c ****   * @param  adc_x: select the adc peripheral.
 334:bsp/libraries/drivers/src/at32f435_437_adc.c ****   *         this parameter can be one of the following values:
 335:bsp/libraries/drivers/src/at32f435_437_adc.c ****   *         - ADC1, ADC2, ADC3.
 336:bsp/libraries/drivers/src/at32f435_437_adc.c ****   * @retval the new state of reset calibration register status(SET or RESET).
 337:bsp/libraries/drivers/src/at32f435_437_adc.c ****   */
 338:bsp/libraries/drivers/src/at32f435_437_adc.c **** flag_status adc_calibration_init_status_get(adc_type *adc_x)
 339:bsp/libraries/drivers/src/at32f435_437_adc.c **** {
 511              		.loc 1 339 1 is_stmt 1 view -0
 512              		.cfi_startproc
 513              		@ args = 0, pretend = 0, frame = 0
 514              		@ frame_needed = 0, uses_anonymous_args = 0
 515              		@ link register save eliminated.
 340:bsp/libraries/drivers/src/at32f435_437_adc.c ****   if(adc_x->ctrl2_bit.adcalinit)
 516              		.loc 1 340 3 view .LVU116
 517              		.loc 1 340 22 is_stmt 0 view .LVU117
 518 0000 8368     		ldr	r3, [r0, #8]
 519              		.loc 1 340 5 view .LVU118
 520 0002 13F0080F 		tst	r3, #8
 521 0006 01D0     		beq	.L28
 341:bsp/libraries/drivers/src/at32f435_437_adc.c ****   {
 342:bsp/libraries/drivers/src/at32f435_437_adc.c ****     return SET;
 522              		.loc 1 342 12 view .LVU119
 523 0008 0120     		movs	r0, #1
 524              	.LVL18:
 525              		.loc 1 342 12 view .LVU120
 526 000a 7047     		bx	lr
 527              	.LVL19:
 528              	.L28:
 343:bsp/libraries/drivers/src/at32f435_437_adc.c ****   }
 344:bsp/libraries/drivers/src/at32f435_437_adc.c ****   else
 345:bsp/libraries/drivers/src/at32f435_437_adc.c ****   {
 346:bsp/libraries/drivers/src/at32f435_437_adc.c ****     return RESET;
 529              		.loc 1 346 12 view .LVU121
 530 000c 0020     		movs	r0, #0
 531              	.LVL20:
ARM GAS  C:\Users\user\AppData\Local\Temp\ccXUtaRu.s 			page 16


 347:bsp/libraries/drivers/src/at32f435_437_adc.c ****   }
 348:bsp/libraries/drivers/src/at32f435_437_adc.c **** }
 532              		.loc 1 348 1 view .LVU122
 533 000e 7047     		bx	lr
 534              		.cfi_endproc
 535              	.LFE146:
 537              		.section	.text.adc_calibration_start,"ax",%progbits
 538              		.align	1
 539              		.global	adc_calibration_start
 540              		.syntax unified
 541              		.thumb
 542              		.thumb_func
 544              	adc_calibration_start:
 545              	.LVL21:
 546              	.LFB147:
 349:bsp/libraries/drivers/src/at32f435_437_adc.c **** 
 350:bsp/libraries/drivers/src/at32f435_437_adc.c **** /**
 351:bsp/libraries/drivers/src/at32f435_437_adc.c ****   * @brief  start calibration process of the specified adc peripheral.
 352:bsp/libraries/drivers/src/at32f435_437_adc.c ****   * @param  adc_x: select the adc peripheral.
 353:bsp/libraries/drivers/src/at32f435_437_adc.c ****   *         this parameter can be one of the following values:
 354:bsp/libraries/drivers/src/at32f435_437_adc.c ****   *         - ADC1, ADC2, ADC3.
 355:bsp/libraries/drivers/src/at32f435_437_adc.c ****   * @retval none
 356:bsp/libraries/drivers/src/at32f435_437_adc.c ****   */
 357:bsp/libraries/drivers/src/at32f435_437_adc.c **** void adc_calibration_start(adc_type *adc_x)
 358:bsp/libraries/drivers/src/at32f435_437_adc.c **** {
 547              		.loc 1 358 1 is_stmt 1 view -0
 548              		.cfi_startproc
 549              		@ args = 0, pretend = 0, frame = 0
 550              		@ frame_needed = 0, uses_anonymous_args = 0
 551              		@ link register save eliminated.
 359:bsp/libraries/drivers/src/at32f435_437_adc.c ****   adc_x->ctrl2_bit.adcal = TRUE;
 552              		.loc 1 359 3 view .LVU124
 553              		.loc 1 359 26 is_stmt 0 view .LVU125
 554 0000 8368     		ldr	r3, [r0, #8]
 555 0002 43F00403 		orr	r3, r3, #4
 556 0006 8360     		str	r3, [r0, #8]
 360:bsp/libraries/drivers/src/at32f435_437_adc.c **** }
 557              		.loc 1 360 1 view .LVU126
 558 0008 7047     		bx	lr
 559              		.cfi_endproc
 560              	.LFE147:
 562              		.section	.text.adc_calibration_status_get,"ax",%progbits
 563              		.align	1
 564              		.global	adc_calibration_status_get
 565              		.syntax unified
 566              		.thumb
 567              		.thumb_func
 569              	adc_calibration_status_get:
 570              	.LVL22:
 571              	.LFB148:
 361:bsp/libraries/drivers/src/at32f435_437_adc.c **** 
 362:bsp/libraries/drivers/src/at32f435_437_adc.c **** /**
 363:bsp/libraries/drivers/src/at32f435_437_adc.c ****   * @brief  get calibration status of the specified adc peripheral.
 364:bsp/libraries/drivers/src/at32f435_437_adc.c ****   * @param  adc_x: select the adc peripheral.
 365:bsp/libraries/drivers/src/at32f435_437_adc.c ****   *         this parameter can be one of the following values:
 366:bsp/libraries/drivers/src/at32f435_437_adc.c ****   *         - ADC1, ADC2, ADC3.
 367:bsp/libraries/drivers/src/at32f435_437_adc.c ****   * @retval the new state of calibration status(SET or RESET).
ARM GAS  C:\Users\user\AppData\Local\Temp\ccXUtaRu.s 			page 17


 368:bsp/libraries/drivers/src/at32f435_437_adc.c ****   */
 369:bsp/libraries/drivers/src/at32f435_437_adc.c **** flag_status adc_calibration_status_get(adc_type *adc_x)
 370:bsp/libraries/drivers/src/at32f435_437_adc.c **** {
 572              		.loc 1 370 1 is_stmt 1 view -0
 573              		.cfi_startproc
 574              		@ args = 0, pretend = 0, frame = 0
 575              		@ frame_needed = 0, uses_anonymous_args = 0
 576              		@ link register save eliminated.
 371:bsp/libraries/drivers/src/at32f435_437_adc.c ****   if(adc_x->ctrl2_bit.adcal)
 577              		.loc 1 371 3 view .LVU128
 578              		.loc 1 371 22 is_stmt 0 view .LVU129
 579 0000 8368     		ldr	r3, [r0, #8]
 580              		.loc 1 371 5 view .LVU130
 581 0002 13F0040F 		tst	r3, #4
 582 0006 01D0     		beq	.L32
 372:bsp/libraries/drivers/src/at32f435_437_adc.c ****   {
 373:bsp/libraries/drivers/src/at32f435_437_adc.c ****     return SET;
 583              		.loc 1 373 12 view .LVU131
 584 0008 0120     		movs	r0, #1
 585              	.LVL23:
 586              		.loc 1 373 12 view .LVU132
 587 000a 7047     		bx	lr
 588              	.LVL24:
 589              	.L32:
 374:bsp/libraries/drivers/src/at32f435_437_adc.c ****   }
 375:bsp/libraries/drivers/src/at32f435_437_adc.c ****   else
 376:bsp/libraries/drivers/src/at32f435_437_adc.c ****   {
 377:bsp/libraries/drivers/src/at32f435_437_adc.c ****     return RESET;
 590              		.loc 1 377 12 view .LVU133
 591 000c 0020     		movs	r0, #0
 592              	.LVL25:
 378:bsp/libraries/drivers/src/at32f435_437_adc.c ****   }
 379:bsp/libraries/drivers/src/at32f435_437_adc.c **** }
 593              		.loc 1 379 1 view .LVU134
 594 000e 7047     		bx	lr
 595              		.cfi_endproc
 596              	.LFE148:
 598              		.section	.text.adc_voltage_monitor_enable,"ax",%progbits
 599              		.align	1
 600              		.global	adc_voltage_monitor_enable
 601              		.syntax unified
 602              		.thumb
 603              		.thumb_func
 605              	adc_voltage_monitor_enable:
 606              	.LVL26:
 607              	.LFB149:
 380:bsp/libraries/drivers/src/at32f435_437_adc.c **** 
 381:bsp/libraries/drivers/src/at32f435_437_adc.c **** /**
 382:bsp/libraries/drivers/src/at32f435_437_adc.c ****   * @brief  enable or disable the voltage monitoring on single/all ordinary or preempt channels of 
 383:bsp/libraries/drivers/src/at32f435_437_adc.c ****   * @param  adc_x: select the adc peripheral.
 384:bsp/libraries/drivers/src/at32f435_437_adc.c ****   *         this parameter can be one of the following values:
 385:bsp/libraries/drivers/src/at32f435_437_adc.c ****   *         - ADC1, ADC2, ADC3.
 386:bsp/libraries/drivers/src/at32f435_437_adc.c ****   * @param  adc_voltage_monitoring: choose the adc_voltage_monitoring config.
 387:bsp/libraries/drivers/src/at32f435_437_adc.c ****   *         this parameter can be one of the following values:
 388:bsp/libraries/drivers/src/at32f435_437_adc.c ****   *         - ADC_VMONITOR_SINGLE_ORDINARY
 389:bsp/libraries/drivers/src/at32f435_437_adc.c ****   *         - ADC_VMONITOR_SINGLE_PREEMPT
 390:bsp/libraries/drivers/src/at32f435_437_adc.c ****   *         - ADC_VMONITOR_SINGLE_ORDINARY_PREEMPT
ARM GAS  C:\Users\user\AppData\Local\Temp\ccXUtaRu.s 			page 18


 391:bsp/libraries/drivers/src/at32f435_437_adc.c ****   *         - ADC_VMONITOR_ALL_ORDINARY
 392:bsp/libraries/drivers/src/at32f435_437_adc.c ****   *         - ADC_VMONITOR_ALL_PREEMPT
 393:bsp/libraries/drivers/src/at32f435_437_adc.c ****   *         - ADC_VMONITOR_ALL_ORDINARY_PREEMPT
 394:bsp/libraries/drivers/src/at32f435_437_adc.c ****   *         - ADC_VMONITOR_NONE
 395:bsp/libraries/drivers/src/at32f435_437_adc.c ****   * @retval none
 396:bsp/libraries/drivers/src/at32f435_437_adc.c ****   */
 397:bsp/libraries/drivers/src/at32f435_437_adc.c **** void adc_voltage_monitor_enable(adc_type *adc_x, adc_voltage_monitoring_type adc_voltage_monitoring
 398:bsp/libraries/drivers/src/at32f435_437_adc.c **** {
 608              		.loc 1 398 1 is_stmt 1 view -0
 609              		.cfi_startproc
 610              		@ args = 0, pretend = 0, frame = 0
 611              		@ frame_needed = 0, uses_anonymous_args = 0
 612              		@ link register save eliminated.
 399:bsp/libraries/drivers/src/at32f435_437_adc.c ****   adc_x->ctrl1_bit.ocvmen = FALSE;
 613              		.loc 1 399 3 view .LVU136
 614              		.loc 1 399 27 is_stmt 0 view .LVU137
 615 0000 4268     		ldr	r2, [r0, #4]
 616 0002 6FF3D752 		bfc	r2, #23, #1
 617 0006 4260     		str	r2, [r0, #4]
 400:bsp/libraries/drivers/src/at32f435_437_adc.c ****   adc_x->ctrl1_bit.pcvmen = FALSE;
 618              		.loc 1 400 3 is_stmt 1 view .LVU138
 619              		.loc 1 400 27 is_stmt 0 view .LVU139
 620 0008 4268     		ldr	r2, [r0, #4]
 621 000a 6FF39652 		bfc	r2, #22, #1
 622 000e 4260     		str	r2, [r0, #4]
 401:bsp/libraries/drivers/src/at32f435_437_adc.c ****   adc_x->ctrl1_bit.vmsgen = FALSE;
 623              		.loc 1 401 3 is_stmt 1 view .LVU140
 624              		.loc 1 401 27 is_stmt 0 view .LVU141
 625 0010 4268     		ldr	r2, [r0, #4]
 626 0012 6FF34922 		bfc	r2, #9, #1
 627 0016 4260     		str	r2, [r0, #4]
 402:bsp/libraries/drivers/src/at32f435_437_adc.c ****   adc_x->ctrl1 |= adc_voltage_monitoring;
 628              		.loc 1 402 3 is_stmt 1 view .LVU142
 629              		.loc 1 402 16 is_stmt 0 view .LVU143
 630 0018 4368     		ldr	r3, [r0, #4]
 631 001a 0B43     		orrs	r3, r3, r1
 632 001c 4360     		str	r3, [r0, #4]
 403:bsp/libraries/drivers/src/at32f435_437_adc.c **** }
 633              		.loc 1 403 1 view .LVU144
 634 001e 7047     		bx	lr
 635              		.cfi_endproc
 636              	.LFE149:
 638              		.section	.text.adc_voltage_monitor_threshold_value_set,"ax",%progbits
 639              		.align	1
 640              		.global	adc_voltage_monitor_threshold_value_set
 641              		.syntax unified
 642              		.thumb
 643              		.thumb_func
 645              	adc_voltage_monitor_threshold_value_set:
 646              	.LVL27:
 647              	.LFB150:
 404:bsp/libraries/drivers/src/at32f435_437_adc.c **** 
 405:bsp/libraries/drivers/src/at32f435_437_adc.c **** /**
 406:bsp/libraries/drivers/src/at32f435_437_adc.c ****   * @brief  set voltage monitoring's high and low thresholds value of the specified adc peripheral.
 407:bsp/libraries/drivers/src/at32f435_437_adc.c ****   * @param  adc_x: select the adc peripheral.
 408:bsp/libraries/drivers/src/at32f435_437_adc.c ****   *         this parameter can be one of the following values:
 409:bsp/libraries/drivers/src/at32f435_437_adc.c ****   *         - ADC1, ADC2, ADC3.
ARM GAS  C:\Users\user\AppData\Local\Temp\ccXUtaRu.s 			page 19


 410:bsp/libraries/drivers/src/at32f435_437_adc.c ****   * @param  adc_high_threshold: voltage monitoring's high thresholds value.
 411:bsp/libraries/drivers/src/at32f435_437_adc.c ****   *         this parameter can be:
 412:bsp/libraries/drivers/src/at32f435_437_adc.c ****   *         - (0x000~0xFFF)
 413:bsp/libraries/drivers/src/at32f435_437_adc.c ****   * @param  adc_low_threshold: voltage monitoring's low thresholds value.
 414:bsp/libraries/drivers/src/at32f435_437_adc.c ****   *         this parameter can be:
 415:bsp/libraries/drivers/src/at32f435_437_adc.c ****   *         - (0x000~0xFFF)
 416:bsp/libraries/drivers/src/at32f435_437_adc.c ****   * @retval none
 417:bsp/libraries/drivers/src/at32f435_437_adc.c ****   */
 418:bsp/libraries/drivers/src/at32f435_437_adc.c **** void adc_voltage_monitor_threshold_value_set(adc_type *adc_x, uint16_t adc_high_threshold, uint16_t
 419:bsp/libraries/drivers/src/at32f435_437_adc.c **** {
 648              		.loc 1 419 1 is_stmt 1 view -0
 649              		.cfi_startproc
 650              		@ args = 0, pretend = 0, frame = 0
 651              		@ frame_needed = 0, uses_anonymous_args = 0
 652              		@ link register save eliminated.
 420:bsp/libraries/drivers/src/at32f435_437_adc.c ****   adc_x->vmhb_bit.vmhb = adc_high_threshold;
 653              		.loc 1 420 3 view .LVU146
 654              		.loc 1 420 24 is_stmt 0 view .LVU147
 655 0000 436A     		ldr	r3, [r0, #36]
 656 0002 61F30B03 		bfi	r3, r1, #0, #12
 657 0006 4362     		str	r3, [r0, #36]
 421:bsp/libraries/drivers/src/at32f435_437_adc.c ****   adc_x->vmlb_bit.vmlb = adc_low_threshold;
 658              		.loc 1 421 3 is_stmt 1 view .LVU148
 659              		.loc 1 421 24 is_stmt 0 view .LVU149
 660 0008 836A     		ldr	r3, [r0, #40]
 661 000a 62F30B03 		bfi	r3, r2, #0, #12
 662 000e 8362     		str	r3, [r0, #40]
 422:bsp/libraries/drivers/src/at32f435_437_adc.c **** }
 663              		.loc 1 422 1 view .LVU150
 664 0010 7047     		bx	lr
 665              		.cfi_endproc
 666              	.LFE150:
 668              		.section	.text.adc_voltage_monitor_single_channel_select,"ax",%progbits
 669              		.align	1
 670              		.global	adc_voltage_monitor_single_channel_select
 671              		.syntax unified
 672              		.thumb
 673              		.thumb_func
 675              	adc_voltage_monitor_single_channel_select:
 676              	.LVL28:
 677              	.LFB151:
 423:bsp/libraries/drivers/src/at32f435_437_adc.c **** 
 424:bsp/libraries/drivers/src/at32f435_437_adc.c **** /**
 425:bsp/libraries/drivers/src/at32f435_437_adc.c ****   * @brief  select the voltage monitoring's channel of the specified adc peripheral.
 426:bsp/libraries/drivers/src/at32f435_437_adc.c ****   * @param  adc_x: select the adc peripheral.
 427:bsp/libraries/drivers/src/at32f435_437_adc.c ****   *         this parameter can be one of the following values:
 428:bsp/libraries/drivers/src/at32f435_437_adc.c ****   *         - ADC1, ADC2, ADC3.
 429:bsp/libraries/drivers/src/at32f435_437_adc.c ****   * @param  adc_channel: select the channel.
 430:bsp/libraries/drivers/src/at32f435_437_adc.c ****   *         this parameter can be one of the following values:
 431:bsp/libraries/drivers/src/at32f435_437_adc.c ****   *         - ADC_CHANNEL_0    - ADC_CHANNEL_1    - ADC_CHANNEL_2    - ADC_CHANNEL_3
 432:bsp/libraries/drivers/src/at32f435_437_adc.c ****   *         - ADC_CHANNEL_4    - ADC_CHANNEL_5    - ADC_CHANNEL_6    - ADC_CHANNEL_7
 433:bsp/libraries/drivers/src/at32f435_437_adc.c ****   *         - ADC_CHANNEL_8    - ADC_CHANNEL_9    - ADC_CHANNEL_10   - ADC_CHANNEL_11
 434:bsp/libraries/drivers/src/at32f435_437_adc.c ****   *         - ADC_CHANNEL_12   - ADC_CHANNEL_13   - ADC_CHANNEL_14   - ADC_CHANNEL_15
 435:bsp/libraries/drivers/src/at32f435_437_adc.c ****   *         - ADC_CHANNEL_16   - ADC_CHANNEL_17   - ADC_CHANNEL_18
 436:bsp/libraries/drivers/src/at32f435_437_adc.c ****   * @retval none
 437:bsp/libraries/drivers/src/at32f435_437_adc.c ****   */
 438:bsp/libraries/drivers/src/at32f435_437_adc.c **** void adc_voltage_monitor_single_channel_select(adc_type *adc_x, adc_channel_select_type adc_channel
ARM GAS  C:\Users\user\AppData\Local\Temp\ccXUtaRu.s 			page 20


 439:bsp/libraries/drivers/src/at32f435_437_adc.c **** {
 678              		.loc 1 439 1 is_stmt 1 view -0
 679              		.cfi_startproc
 680              		@ args = 0, pretend = 0, frame = 0
 681              		@ frame_needed = 0, uses_anonymous_args = 0
 682              		@ link register save eliminated.
 440:bsp/libraries/drivers/src/at32f435_437_adc.c ****   adc_x->ctrl1_bit.vmcsel = adc_channel;
 683              		.loc 1 440 3 view .LVU152
 684              		.loc 1 440 27 is_stmt 0 view .LVU153
 685 0000 4368     		ldr	r3, [r0, #4]
 686 0002 61F30403 		bfi	r3, r1, #0, #5
 687 0006 4360     		str	r3, [r0, #4]
 441:bsp/libraries/drivers/src/at32f435_437_adc.c **** }
 688              		.loc 1 441 1 view .LVU154
 689 0008 7047     		bx	lr
 690              		.cfi_endproc
 691              	.LFE151:
 693              		.section	.text.adc_ordinary_channel_set,"ax",%progbits
 694              		.align	1
 695              		.global	adc_ordinary_channel_set
 696              		.syntax unified
 697              		.thumb
 698              		.thumb_func
 700              	adc_ordinary_channel_set:
 701              	.LVL29:
 702              	.LFB152:
 442:bsp/libraries/drivers/src/at32f435_437_adc.c **** 
 443:bsp/libraries/drivers/src/at32f435_437_adc.c **** /**
 444:bsp/libraries/drivers/src/at32f435_437_adc.c ****   * @brief  set ordinary channel's corresponding rank in the sequencer and sample time of the speci
 445:bsp/libraries/drivers/src/at32f435_437_adc.c ****   * @param  adc_x: select the adc peripheral.
 446:bsp/libraries/drivers/src/at32f435_437_adc.c ****   *         this parameter can be one of the following values:
 447:bsp/libraries/drivers/src/at32f435_437_adc.c ****   *         - ADC1, ADC2, ADC3.
 448:bsp/libraries/drivers/src/at32f435_437_adc.c ****   * @param  adc_channel: select the channel.
 449:bsp/libraries/drivers/src/at32f435_437_adc.c ****   *         this parameter can be one of the following values:
 450:bsp/libraries/drivers/src/at32f435_437_adc.c ****   *         - ADC_CHANNEL_0    - ADC_CHANNEL_1    - ADC_CHANNEL_2    - ADC_CHANNEL_3
 451:bsp/libraries/drivers/src/at32f435_437_adc.c ****   *         - ADC_CHANNEL_4    - ADC_CHANNEL_5    - ADC_CHANNEL_6    - ADC_CHANNEL_7
 452:bsp/libraries/drivers/src/at32f435_437_adc.c ****   *         - ADC_CHANNEL_8    - ADC_CHANNEL_9    - ADC_CHANNEL_10   - ADC_CHANNEL_11
 453:bsp/libraries/drivers/src/at32f435_437_adc.c ****   *         - ADC_CHANNEL_12   - ADC_CHANNEL_13   - ADC_CHANNEL_14   - ADC_CHANNEL_15
 454:bsp/libraries/drivers/src/at32f435_437_adc.c ****   *         - ADC_CHANNEL_16   - ADC_CHANNEL_17   - ADC_CHANNEL_18
 455:bsp/libraries/drivers/src/at32f435_437_adc.c ****   * @param  adc_sequence: set rank in the ordinary group sequencer.
 456:bsp/libraries/drivers/src/at32f435_437_adc.c ****   *         this parameter must be:
 457:bsp/libraries/drivers/src/at32f435_437_adc.c ****   *         - between 1 to 16
 458:bsp/libraries/drivers/src/at32f435_437_adc.c ****   * @param  adc_sampletime: set the sampletime of adc channel.
 459:bsp/libraries/drivers/src/at32f435_437_adc.c ****   *         this parameter can be one of the following values:
 460:bsp/libraries/drivers/src/at32f435_437_adc.c ****   *         - ADC_SAMPLETIME_2_5
 461:bsp/libraries/drivers/src/at32f435_437_adc.c ****   *         - ADC_SAMPLETIME_6_5
 462:bsp/libraries/drivers/src/at32f435_437_adc.c ****   *         - ADC_SAMPLETIME_12_5
 463:bsp/libraries/drivers/src/at32f435_437_adc.c ****   *         - ADC_SAMPLETIME_24_5
 464:bsp/libraries/drivers/src/at32f435_437_adc.c ****   *         - ADC_SAMPLETIME_47_5
 465:bsp/libraries/drivers/src/at32f435_437_adc.c ****   *         - ADC_SAMPLETIME_92_5
 466:bsp/libraries/drivers/src/at32f435_437_adc.c ****   *         - ADC_SAMPLETIME_247_5
 467:bsp/libraries/drivers/src/at32f435_437_adc.c ****   *         - ADC_SAMPLETIME_640_5
 468:bsp/libraries/drivers/src/at32f435_437_adc.c ****   * @retval none
 469:bsp/libraries/drivers/src/at32f435_437_adc.c ****   */
 470:bsp/libraries/drivers/src/at32f435_437_adc.c **** void adc_ordinary_channel_set(adc_type *adc_x, adc_channel_select_type adc_channel, uint8_t adc_seq
 471:bsp/libraries/drivers/src/at32f435_437_adc.c **** {
 703              		.loc 1 471 1 is_stmt 1 view -0
ARM GAS  C:\Users\user\AppData\Local\Temp\ccXUtaRu.s 			page 21


 704              		.cfi_startproc
 705              		@ args = 0, pretend = 0, frame = 0
 706              		@ frame_needed = 0, uses_anonymous_args = 0
 707              		.loc 1 471 1 is_stmt 0 view .LVU156
 708 0000 10B5     		push	{r4, lr}
 709              	.LCFI1:
 710              		.cfi_def_cfa_offset 8
 711              		.cfi_offset 4, -8
 712              		.cfi_offset 14, -4
 472:bsp/libraries/drivers/src/at32f435_437_adc.c ****   uint32_t tmp_reg;
 713              		.loc 1 472 3 is_stmt 1 view .LVU157
 473:bsp/libraries/drivers/src/at32f435_437_adc.c ****   if(adc_channel < ADC_CHANNEL_10)
 714              		.loc 1 473 3 view .LVU158
 715              		.loc 1 473 5 is_stmt 0 view .LVU159
 716 0002 0929     		cmp	r1, #9
 717 0004 1DD8     		bhi	.L37
 474:bsp/libraries/drivers/src/at32f435_437_adc.c ****   {
 475:bsp/libraries/drivers/src/at32f435_437_adc.c ****     tmp_reg = adc_x->spt2;
 718              		.loc 1 475 5 is_stmt 1 view .LVU160
 719              		.loc 1 475 13 is_stmt 0 view .LVU161
 720 0006 0469     		ldr	r4, [r0, #16]
 721              	.LVL30:
 476:bsp/libraries/drivers/src/at32f435_437_adc.c ****     tmp_reg &= ~(0x07 << 3 * adc_channel);
 722              		.loc 1 476 5 is_stmt 1 view .LVU162
 723              		.loc 1 476 28 is_stmt 0 view .LVU163
 724 0008 01EB410C 		add	ip, r1, r1, lsl #1
 725              		.loc 1 476 23 view .LVU164
 726 000c 4FF0070E 		mov	lr, #7
 727 0010 0EFA0CFE 		lsl	lr, lr, ip
 728              		.loc 1 476 13 view .LVU165
 729 0014 24EA0E04 		bic	r4, r4, lr
 730              	.LVL31:
 477:bsp/libraries/drivers/src/at32f435_437_adc.c ****     tmp_reg |= adc_sampletime << 3 * adc_channel;
 731              		.loc 1 477 5 is_stmt 1 view .LVU166
 732              		.loc 1 477 31 is_stmt 0 view .LVU167
 733 0018 03FA0CF3 		lsl	r3, r3, ip
 734              	.LVL32:
 735              		.loc 1 477 13 view .LVU168
 736 001c 2343     		orrs	r3, r3, r4
 737              	.LVL33:
 478:bsp/libraries/drivers/src/at32f435_437_adc.c ****     adc_x->spt2 = tmp_reg;
 738              		.loc 1 478 5 is_stmt 1 view .LVU169
 739              		.loc 1 478 17 is_stmt 0 view .LVU170
 740 001e 0361     		str	r3, [r0, #16]
 741              	.L38:
 479:bsp/libraries/drivers/src/at32f435_437_adc.c ****   }
 480:bsp/libraries/drivers/src/at32f435_437_adc.c ****   else
 481:bsp/libraries/drivers/src/at32f435_437_adc.c ****   {
 482:bsp/libraries/drivers/src/at32f435_437_adc.c ****     tmp_reg = adc_x->spt1;
 483:bsp/libraries/drivers/src/at32f435_437_adc.c ****     tmp_reg &= ~(0x07 << 3 * (adc_channel - ADC_CHANNEL_10));
 484:bsp/libraries/drivers/src/at32f435_437_adc.c ****     tmp_reg |= adc_sampletime << 3 * (adc_channel - ADC_CHANNEL_10);
 485:bsp/libraries/drivers/src/at32f435_437_adc.c ****     adc_x->spt1 = tmp_reg;
 486:bsp/libraries/drivers/src/at32f435_437_adc.c ****   }
 487:bsp/libraries/drivers/src/at32f435_437_adc.c ****   
 488:bsp/libraries/drivers/src/at32f435_437_adc.c ****   if(adc_sequence >= 13)
 742              		.loc 1 488 3 is_stmt 1 view .LVU171
 743              		.loc 1 488 5 is_stmt 0 view .LVU172
ARM GAS  C:\Users\user\AppData\Local\Temp\ccXUtaRu.s 			page 22


 744 0020 0C2A     		cmp	r2, #12
 745 0022 1FD9     		bls	.L39
 489:bsp/libraries/drivers/src/at32f435_437_adc.c ****   {
 490:bsp/libraries/drivers/src/at32f435_437_adc.c ****     tmp_reg = adc_x->osq1;
 746              		.loc 1 490 5 is_stmt 1 view .LVU173
 747              		.loc 1 490 13 is_stmt 0 view .LVU174
 748 0024 C36A     		ldr	r3, [r0, #44]
 749              	.LVL34:
 491:bsp/libraries/drivers/src/at32f435_437_adc.c ****     tmp_reg &= ~(0x01F << 5 * (adc_sequence - 13));
 750              		.loc 1 491 5 is_stmt 1 view .LVU175
 751              		.loc 1 491 45 is_stmt 0 view .LVU176
 752 0026 0D3A     		subs	r2, r2, #13
 753              	.LVL35:
 754              		.loc 1 491 29 view .LVU177
 755 0028 02EB8202 		add	r2, r2, r2, lsl #2
 756              		.loc 1 491 24 view .LVU178
 757 002c 4FF01F0C 		mov	ip, #31
 758 0030 0CFA02FC 		lsl	ip, ip, r2
 759              		.loc 1 491 13 view .LVU179
 760 0034 23EA0C03 		bic	r3, r3, ip
 761              	.LVL36:
 492:bsp/libraries/drivers/src/at32f435_437_adc.c ****     tmp_reg |= adc_channel << 5 * (adc_sequence - 13);
 762              		.loc 1 492 5 is_stmt 1 view .LVU180
 763              		.loc 1 492 28 is_stmt 0 view .LVU181
 764 0038 01FA02F2 		lsl	r2, r1, r2
 765              		.loc 1 492 13 view .LVU182
 766 003c 1A43     		orrs	r2, r2, r3
 767              	.LVL37:
 493:bsp/libraries/drivers/src/at32f435_437_adc.c ****     adc_x->osq1 = tmp_reg;
 768              		.loc 1 493 5 is_stmt 1 view .LVU183
 769              		.loc 1 493 17 is_stmt 0 view .LVU184
 770 003e C262     		str	r2, [r0, #44]
 771              	.LVL38:
 772              	.L36:
 494:bsp/libraries/drivers/src/at32f435_437_adc.c ****   }
 495:bsp/libraries/drivers/src/at32f435_437_adc.c ****   else if(adc_sequence >= 7)
 496:bsp/libraries/drivers/src/at32f435_437_adc.c ****   {
 497:bsp/libraries/drivers/src/at32f435_437_adc.c ****     tmp_reg = adc_x->osq2;
 498:bsp/libraries/drivers/src/at32f435_437_adc.c ****     tmp_reg &= ~(0x01F << 5 * (adc_sequence - 7));
 499:bsp/libraries/drivers/src/at32f435_437_adc.c ****     tmp_reg |= adc_channel << 5 * (adc_sequence - 7);
 500:bsp/libraries/drivers/src/at32f435_437_adc.c ****     adc_x->osq2 = tmp_reg;
 501:bsp/libraries/drivers/src/at32f435_437_adc.c ****   }
 502:bsp/libraries/drivers/src/at32f435_437_adc.c ****   else
 503:bsp/libraries/drivers/src/at32f435_437_adc.c ****   {
 504:bsp/libraries/drivers/src/at32f435_437_adc.c ****     tmp_reg = adc_x->osq3;
 505:bsp/libraries/drivers/src/at32f435_437_adc.c ****     tmp_reg &= ~(0x01F << 5 * (adc_sequence - 1));
 506:bsp/libraries/drivers/src/at32f435_437_adc.c ****     tmp_reg |= adc_channel << 5 * (adc_sequence - 1);
 507:bsp/libraries/drivers/src/at32f435_437_adc.c ****     adc_x->osq3 = tmp_reg;
 508:bsp/libraries/drivers/src/at32f435_437_adc.c ****   }
 509:bsp/libraries/drivers/src/at32f435_437_adc.c **** }
 773              		.loc 1 509 1 view .LVU185
 774 0040 10BD     		pop	{r4, pc}
 775              	.LVL39:
 776              	.L37:
 482:bsp/libraries/drivers/src/at32f435_437_adc.c ****     tmp_reg &= ~(0x07 << 3 * (adc_channel - ADC_CHANNEL_10));
 777              		.loc 1 482 5 is_stmt 1 view .LVU186
 482:bsp/libraries/drivers/src/at32f435_437_adc.c ****     tmp_reg &= ~(0x07 << 3 * (adc_channel - ADC_CHANNEL_10));
ARM GAS  C:\Users\user\AppData\Local\Temp\ccXUtaRu.s 			page 23


 778              		.loc 1 482 13 is_stmt 0 view .LVU187
 779 0042 C468     		ldr	r4, [r0, #12]
 780              	.LVL40:
 483:bsp/libraries/drivers/src/at32f435_437_adc.c ****     tmp_reg |= adc_sampletime << 3 * (adc_channel - ADC_CHANNEL_10);
 781              		.loc 1 483 5 is_stmt 1 view .LVU188
 483:bsp/libraries/drivers/src/at32f435_437_adc.c ****     tmp_reg |= adc_sampletime << 3 * (adc_channel - ADC_CHANNEL_10);
 782              		.loc 1 483 43 is_stmt 0 view .LVU189
 783 0044 A1F10A0C 		sub	ip, r1, #10
 483:bsp/libraries/drivers/src/at32f435_437_adc.c ****     tmp_reg |= adc_sampletime << 3 * (adc_channel - ADC_CHANNEL_10);
 784              		.loc 1 483 28 view .LVU190
 785 0048 0CEB4C0C 		add	ip, ip, ip, lsl #1
 483:bsp/libraries/drivers/src/at32f435_437_adc.c ****     tmp_reg |= adc_sampletime << 3 * (adc_channel - ADC_CHANNEL_10);
 786              		.loc 1 483 23 view .LVU191
 787 004c 4FF0070E 		mov	lr, #7
 788 0050 0EFA0CFE 		lsl	lr, lr, ip
 483:bsp/libraries/drivers/src/at32f435_437_adc.c ****     tmp_reg |= adc_sampletime << 3 * (adc_channel - ADC_CHANNEL_10);
 789              		.loc 1 483 13 view .LVU192
 790 0054 24EA0E0E 		bic	lr, r4, lr
 791              	.LVL41:
 484:bsp/libraries/drivers/src/at32f435_437_adc.c ****     adc_x->spt1 = tmp_reg;
 792              		.loc 1 484 5 is_stmt 1 view .LVU193
 484:bsp/libraries/drivers/src/at32f435_437_adc.c ****     adc_x->spt1 = tmp_reg;
 793              		.loc 1 484 31 is_stmt 0 view .LVU194
 794 0058 03FA0CF3 		lsl	r3, r3, ip
 795              	.LVL42:
 484:bsp/libraries/drivers/src/at32f435_437_adc.c ****     adc_x->spt1 = tmp_reg;
 796              		.loc 1 484 13 view .LVU195
 797 005c 43EA0E03 		orr	r3, r3, lr
 798              	.LVL43:
 485:bsp/libraries/drivers/src/at32f435_437_adc.c ****   }
 799              		.loc 1 485 5 is_stmt 1 view .LVU196
 485:bsp/libraries/drivers/src/at32f435_437_adc.c ****   }
 800              		.loc 1 485 17 is_stmt 0 view .LVU197
 801 0060 C360     		str	r3, [r0, #12]
 802 0062 DDE7     		b	.L38
 803              	.L39:
 495:bsp/libraries/drivers/src/at32f435_437_adc.c ****   {
 804              		.loc 1 495 8 is_stmt 1 view .LVU198
 495:bsp/libraries/drivers/src/at32f435_437_adc.c ****   {
 805              		.loc 1 495 10 is_stmt 0 view .LVU199
 806 0064 062A     		cmp	r2, #6
 807 0066 0CD9     		bls	.L41
 497:bsp/libraries/drivers/src/at32f435_437_adc.c ****     tmp_reg &= ~(0x01F << 5 * (adc_sequence - 7));
 808              		.loc 1 497 5 is_stmt 1 view .LVU200
 497:bsp/libraries/drivers/src/at32f435_437_adc.c ****     tmp_reg &= ~(0x01F << 5 * (adc_sequence - 7));
 809              		.loc 1 497 13 is_stmt 0 view .LVU201
 810 0068 036B     		ldr	r3, [r0, #48]
 811              	.LVL44:
 498:bsp/libraries/drivers/src/at32f435_437_adc.c ****     tmp_reg |= adc_channel << 5 * (adc_sequence - 7);
 812              		.loc 1 498 5 is_stmt 1 view .LVU202
 498:bsp/libraries/drivers/src/at32f435_437_adc.c ****     tmp_reg |= adc_channel << 5 * (adc_sequence - 7);
 813              		.loc 1 498 45 is_stmt 0 view .LVU203
 814 006a 073A     		subs	r2, r2, #7
 815              	.LVL45:
 498:bsp/libraries/drivers/src/at32f435_437_adc.c ****     tmp_reg |= adc_channel << 5 * (adc_sequence - 7);
 816              		.loc 1 498 29 view .LVU204
 817 006c 02EB8202 		add	r2, r2, r2, lsl #2
ARM GAS  C:\Users\user\AppData\Local\Temp\ccXUtaRu.s 			page 24


 498:bsp/libraries/drivers/src/at32f435_437_adc.c ****     tmp_reg |= adc_channel << 5 * (adc_sequence - 7);
 818              		.loc 1 498 24 view .LVU205
 819 0070 1F24     		movs	r4, #31
 820 0072 9440     		lsls	r4, r4, r2
 498:bsp/libraries/drivers/src/at32f435_437_adc.c ****     tmp_reg |= adc_channel << 5 * (adc_sequence - 7);
 821              		.loc 1 498 13 view .LVU206
 822 0074 23EA0403 		bic	r3, r3, r4
 823              	.LVL46:
 499:bsp/libraries/drivers/src/at32f435_437_adc.c ****     adc_x->osq2 = tmp_reg;
 824              		.loc 1 499 5 is_stmt 1 view .LVU207
 499:bsp/libraries/drivers/src/at32f435_437_adc.c ****     adc_x->osq2 = tmp_reg;
 825              		.loc 1 499 28 is_stmt 0 view .LVU208
 826 0078 01FA02F2 		lsl	r2, r1, r2
 499:bsp/libraries/drivers/src/at32f435_437_adc.c ****     adc_x->osq2 = tmp_reg;
 827              		.loc 1 499 13 view .LVU209
 828 007c 1A43     		orrs	r2, r2, r3
 829              	.LVL47:
 500:bsp/libraries/drivers/src/at32f435_437_adc.c ****   }
 830              		.loc 1 500 5 is_stmt 1 view .LVU210
 500:bsp/libraries/drivers/src/at32f435_437_adc.c ****   }
 831              		.loc 1 500 17 is_stmt 0 view .LVU211
 832 007e 0263     		str	r2, [r0, #48]
 833 0080 DEE7     		b	.L36
 834              	.LVL48:
 835              	.L41:
 504:bsp/libraries/drivers/src/at32f435_437_adc.c ****     tmp_reg &= ~(0x01F << 5 * (adc_sequence - 1));
 836              		.loc 1 504 5 is_stmt 1 view .LVU212
 504:bsp/libraries/drivers/src/at32f435_437_adc.c ****     tmp_reg &= ~(0x01F << 5 * (adc_sequence - 1));
 837              		.loc 1 504 13 is_stmt 0 view .LVU213
 838 0082 436B     		ldr	r3, [r0, #52]
 839              	.LVL49:
 505:bsp/libraries/drivers/src/at32f435_437_adc.c ****     tmp_reg |= adc_channel << 5 * (adc_sequence - 1);
 840              		.loc 1 505 5 is_stmt 1 view .LVU214
 505:bsp/libraries/drivers/src/at32f435_437_adc.c ****     tmp_reg |= adc_channel << 5 * (adc_sequence - 1);
 841              		.loc 1 505 45 is_stmt 0 view .LVU215
 842 0084 013A     		subs	r2, r2, #1
 843              	.LVL50:
 505:bsp/libraries/drivers/src/at32f435_437_adc.c ****     tmp_reg |= adc_channel << 5 * (adc_sequence - 1);
 844              		.loc 1 505 29 view .LVU216
 845 0086 02EB8202 		add	r2, r2, r2, lsl #2
 505:bsp/libraries/drivers/src/at32f435_437_adc.c ****     tmp_reg |= adc_channel << 5 * (adc_sequence - 1);
 846              		.loc 1 505 24 view .LVU217
 847 008a 1F24     		movs	r4, #31
 848 008c 9440     		lsls	r4, r4, r2
 505:bsp/libraries/drivers/src/at32f435_437_adc.c ****     tmp_reg |= adc_channel << 5 * (adc_sequence - 1);
 849              		.loc 1 505 13 view .LVU218
 850 008e 23EA0404 		bic	r4, r3, r4
 851              	.LVL51:
 506:bsp/libraries/drivers/src/at32f435_437_adc.c ****     adc_x->osq3 = tmp_reg;
 852              		.loc 1 506 5 is_stmt 1 view .LVU219
 506:bsp/libraries/drivers/src/at32f435_437_adc.c ****     adc_x->osq3 = tmp_reg;
 853              		.loc 1 506 28 is_stmt 0 view .LVU220
 854 0092 01FA02F3 		lsl	r3, r1, r2
 506:bsp/libraries/drivers/src/at32f435_437_adc.c ****     adc_x->osq3 = tmp_reg;
 855              		.loc 1 506 13 view .LVU221
 856 0096 2343     		orrs	r3, r3, r4
 857              	.LVL52:
ARM GAS  C:\Users\user\AppData\Local\Temp\ccXUtaRu.s 			page 25


 507:bsp/libraries/drivers/src/at32f435_437_adc.c ****   }
 858              		.loc 1 507 5 is_stmt 1 view .LVU222
 507:bsp/libraries/drivers/src/at32f435_437_adc.c ****   }
 859              		.loc 1 507 17 is_stmt 0 view .LVU223
 860 0098 4363     		str	r3, [r0, #52]
 861              		.loc 1 509 1 view .LVU224
 862 009a D1E7     		b	.L36
 863              		.cfi_endproc
 864              	.LFE152:
 866              		.section	.text.adc_preempt_channel_length_set,"ax",%progbits
 867              		.align	1
 868              		.global	adc_preempt_channel_length_set
 869              		.syntax unified
 870              		.thumb
 871              		.thumb_func
 873              	adc_preempt_channel_length_set:
 874              	.LVL53:
 875              	.LFB153:
 510:bsp/libraries/drivers/src/at32f435_437_adc.c **** 
 511:bsp/libraries/drivers/src/at32f435_437_adc.c **** /**
 512:bsp/libraries/drivers/src/at32f435_437_adc.c ****   * @brief  set preempt channel lenghth of the specified adc peripheral.
 513:bsp/libraries/drivers/src/at32f435_437_adc.c ****   * @param  adc_x: select the adc peripheral.
 514:bsp/libraries/drivers/src/at32f435_437_adc.c ****   *         this parameter can be one of the following values:
 515:bsp/libraries/drivers/src/at32f435_437_adc.c ****   *         - ADC1, ADC2, ADC3.
 516:bsp/libraries/drivers/src/at32f435_437_adc.c ****   * @param  adc_channel_lenght: set the adc preempt channel lenghth.
 517:bsp/libraries/drivers/src/at32f435_437_adc.c ****   *         this parameter can be:
 518:bsp/libraries/drivers/src/at32f435_437_adc.c ****   *         - (0x1~0x4)
 519:bsp/libraries/drivers/src/at32f435_437_adc.c ****   * @retval none
 520:bsp/libraries/drivers/src/at32f435_437_adc.c ****   */
 521:bsp/libraries/drivers/src/at32f435_437_adc.c **** void adc_preempt_channel_length_set(adc_type *adc_x, uint8_t adc_channel_lenght)
 522:bsp/libraries/drivers/src/at32f435_437_adc.c **** {
 876              		.loc 1 522 1 is_stmt 1 view -0
 877              		.cfi_startproc
 878              		@ args = 0, pretend = 0, frame = 0
 879              		@ frame_needed = 0, uses_anonymous_args = 0
 880              		@ link register save eliminated.
 523:bsp/libraries/drivers/src/at32f435_437_adc.c ****   adc_x->psq_bit.pclen =  adc_channel_lenght - 1;
 881              		.loc 1 523 3 view .LVU226
 882              		.loc 1 523 46 is_stmt 0 view .LVU227
 883 0000 0139     		subs	r1, r1, #1
 884              	.LVL54:
 885              		.loc 1 523 24 view .LVU228
 886 0002 836B     		ldr	r3, [r0, #56]
 887 0004 61F31553 		bfi	r3, r1, #20, #2
 888 0008 8363     		str	r3, [r0, #56]
 524:bsp/libraries/drivers/src/at32f435_437_adc.c **** }
 889              		.loc 1 524 1 view .LVU229
 890 000a 7047     		bx	lr
 891              		.cfi_endproc
 892              	.LFE153:
 894              		.section	.text.adc_preempt_channel_set,"ax",%progbits
 895              		.align	1
 896              		.global	adc_preempt_channel_set
 897              		.syntax unified
 898              		.thumb
 899              		.thumb_func
 901              	adc_preempt_channel_set:
ARM GAS  C:\Users\user\AppData\Local\Temp\ccXUtaRu.s 			page 26


 902              	.LVL55:
 903              	.LFB154:
 525:bsp/libraries/drivers/src/at32f435_437_adc.c **** 
 526:bsp/libraries/drivers/src/at32f435_437_adc.c **** /**
 527:bsp/libraries/drivers/src/at32f435_437_adc.c ****   * @brief  configure preempt channel's corresponding rank in the sequencer and sample time of the 
 528:bsp/libraries/drivers/src/at32f435_437_adc.c ****   * @param  adc_x: select the adc peripheral.
 529:bsp/libraries/drivers/src/at32f435_437_adc.c ****   *         this parameter can be one of the following values:
 530:bsp/libraries/drivers/src/at32f435_437_adc.c ****   *         - ADC1, ADC2, ADC3.
 531:bsp/libraries/drivers/src/at32f435_437_adc.c ****   * @param  adc_channel: select the channel.
 532:bsp/libraries/drivers/src/at32f435_437_adc.c ****   *         this parameter can be one of the following values:
 533:bsp/libraries/drivers/src/at32f435_437_adc.c ****   *         - ADC_CHANNEL_0    - ADC_CHANNEL_1    - ADC_CHANNEL_2    - ADC_CHANNEL_3
 534:bsp/libraries/drivers/src/at32f435_437_adc.c ****   *         - ADC_CHANNEL_4    - ADC_CHANNEL_5    - ADC_CHANNEL_6    - ADC_CHANNEL_7
 535:bsp/libraries/drivers/src/at32f435_437_adc.c ****   *         - ADC_CHANNEL_8    - ADC_CHANNEL_9    - ADC_CHANNEL_10   - ADC_CHANNEL_11
 536:bsp/libraries/drivers/src/at32f435_437_adc.c ****   *         - ADC_CHANNEL_12   - ADC_CHANNEL_13   - ADC_CHANNEL_14   - ADC_CHANNEL_15
 537:bsp/libraries/drivers/src/at32f435_437_adc.c ****   *         - ADC_CHANNEL_16   - ADC_CHANNEL_17   - ADC_CHANNEL_18
 538:bsp/libraries/drivers/src/at32f435_437_adc.c ****   * @param  adc_sequence: set rank in the preempt group sequencer.
 539:bsp/libraries/drivers/src/at32f435_437_adc.c ****   *         this parameter must be:
 540:bsp/libraries/drivers/src/at32f435_437_adc.c ****   *         - between 1 to 4
 541:bsp/libraries/drivers/src/at32f435_437_adc.c ****   * @param  adc_sampletime: config the sampletime of adc channel.
 542:bsp/libraries/drivers/src/at32f435_437_adc.c ****   *         this parameter can be one of the following values:
 543:bsp/libraries/drivers/src/at32f435_437_adc.c ****   *         - ADC_SAMPLETIME_2_5
 544:bsp/libraries/drivers/src/at32f435_437_adc.c ****   *         - ADC_SAMPLETIME_6_5
 545:bsp/libraries/drivers/src/at32f435_437_adc.c ****   *         - ADC_SAMPLETIME_12_5
 546:bsp/libraries/drivers/src/at32f435_437_adc.c ****   *         - ADC_SAMPLETIME_24_5
 547:bsp/libraries/drivers/src/at32f435_437_adc.c ****   *         - ADC_SAMPLETIME_47_5
 548:bsp/libraries/drivers/src/at32f435_437_adc.c ****   *         - ADC_SAMPLETIME_92_5
 549:bsp/libraries/drivers/src/at32f435_437_adc.c ****   *         - ADC_SAMPLETIME_247_5
 550:bsp/libraries/drivers/src/at32f435_437_adc.c ****   *         - ADC_SAMPLETIME_640_5
 551:bsp/libraries/drivers/src/at32f435_437_adc.c ****   * @retval none
 552:bsp/libraries/drivers/src/at32f435_437_adc.c ****   */
 553:bsp/libraries/drivers/src/at32f435_437_adc.c **** void adc_preempt_channel_set(adc_type *adc_x, adc_channel_select_type adc_channel, uint8_t adc_sequ
 554:bsp/libraries/drivers/src/at32f435_437_adc.c **** {
 904              		.loc 1 554 1 is_stmt 1 view -0
 905              		.cfi_startproc
 906              		@ args = 0, pretend = 0, frame = 0
 907              		@ frame_needed = 0, uses_anonymous_args = 0
 908              		.loc 1 554 1 is_stmt 0 view .LVU231
 909 0000 10B5     		push	{r4, lr}
 910              	.LCFI2:
 911              		.cfi_def_cfa_offset 8
 912              		.cfi_offset 4, -8
 913              		.cfi_offset 14, -4
 555:bsp/libraries/drivers/src/at32f435_437_adc.c ****   uint32_t tmp_reg;
 914              		.loc 1 555 3 is_stmt 1 view .LVU232
 556:bsp/libraries/drivers/src/at32f435_437_adc.c ****   uint8_t sequence_index; 
 915              		.loc 1 556 3 view .LVU233
 557:bsp/libraries/drivers/src/at32f435_437_adc.c ****   if(adc_channel < ADC_CHANNEL_10)
 916              		.loc 1 557 3 view .LVU234
 917              		.loc 1 557 5 is_stmt 0 view .LVU235
 918 0002 0929     		cmp	r1, #9
 919 0004 1AD8     		bhi	.L45
 558:bsp/libraries/drivers/src/at32f435_437_adc.c ****   {
 559:bsp/libraries/drivers/src/at32f435_437_adc.c ****     tmp_reg = adc_x->spt2;
 920              		.loc 1 559 5 is_stmt 1 view .LVU236
 921              		.loc 1 559 13 is_stmt 0 view .LVU237
 922 0006 0469     		ldr	r4, [r0, #16]
 923              	.LVL56:
ARM GAS  C:\Users\user\AppData\Local\Temp\ccXUtaRu.s 			page 27


 560:bsp/libraries/drivers/src/at32f435_437_adc.c ****     tmp_reg &= ~(0x07 << 3 * adc_channel);
 924              		.loc 1 560 5 is_stmt 1 view .LVU238
 925              		.loc 1 560 28 is_stmt 0 view .LVU239
 926 0008 01EB410C 		add	ip, r1, r1, lsl #1
 927              		.loc 1 560 23 view .LVU240
 928 000c 4FF0070E 		mov	lr, #7
 929 0010 0EFA0CFE 		lsl	lr, lr, ip
 930              		.loc 1 560 13 view .LVU241
 931 0014 24EA0E04 		bic	r4, r4, lr
 932              	.LVL57:
 561:bsp/libraries/drivers/src/at32f435_437_adc.c ****     tmp_reg |= adc_sampletime << 3 * adc_channel;
 933              		.loc 1 561 5 is_stmt 1 view .LVU242
 934              		.loc 1 561 31 is_stmt 0 view .LVU243
 935 0018 03FA0CF3 		lsl	r3, r3, ip
 936              	.LVL58:
 937              		.loc 1 561 13 view .LVU244
 938 001c 2343     		orrs	r3, r3, r4
 939              	.LVL59:
 562:bsp/libraries/drivers/src/at32f435_437_adc.c ****     adc_x->spt2 = tmp_reg;
 940              		.loc 1 562 5 is_stmt 1 view .LVU245
 941              		.loc 1 562 17 is_stmt 0 view .LVU246
 942 001e 0361     		str	r3, [r0, #16]
 943              	.L46:
 563:bsp/libraries/drivers/src/at32f435_437_adc.c ****   }
 564:bsp/libraries/drivers/src/at32f435_437_adc.c ****   else
 565:bsp/libraries/drivers/src/at32f435_437_adc.c ****   {
 566:bsp/libraries/drivers/src/at32f435_437_adc.c ****     tmp_reg = adc_x->spt1;
 567:bsp/libraries/drivers/src/at32f435_437_adc.c ****     tmp_reg &= ~(0x07 << 3 * (adc_channel - ADC_CHANNEL_10));
 568:bsp/libraries/drivers/src/at32f435_437_adc.c ****     tmp_reg |= adc_sampletime << 3 * (adc_channel - ADC_CHANNEL_10);
 569:bsp/libraries/drivers/src/at32f435_437_adc.c ****     adc_x->spt1 = tmp_reg;
 570:bsp/libraries/drivers/src/at32f435_437_adc.c ****   }
 571:bsp/libraries/drivers/src/at32f435_437_adc.c **** 
 572:bsp/libraries/drivers/src/at32f435_437_adc.c ****   sequence_index = adc_sequence + 3 - adc_x->psq_bit.pclen;
 944              		.loc 1 572 3 is_stmt 1 view .LVU247
 945              		.loc 1 572 53 is_stmt 0 view .LVU248
 946 0020 836B     		ldr	r3, [r0, #56]
 947              	.LVL60:
 948              		.loc 1 572 53 view .LVU249
 949 0022 C3F30153 		ubfx	r3, r3, #20, #2
 950              		.loc 1 572 37 view .LVU250
 951 0026 D31A     		subs	r3, r2, r3
 952 0028 DBB2     		uxtb	r3, r3
 953              		.loc 1 572 18 view .LVU251
 954 002a 0333     		adds	r3, r3, #3
 955 002c DBB2     		uxtb	r3, r3
 956              	.LVL61:
 573:bsp/libraries/drivers/src/at32f435_437_adc.c ****   switch(sequence_index)
 957              		.loc 1 573 3 is_stmt 1 view .LVU252
 958 002e 013B     		subs	r3, r3, #1
 959              	.LVL62:
 960              		.loc 1 573 3 is_stmt 0 view .LVU253
 961 0030 032B     		cmp	r3, #3
 962 0032 18D8     		bhi	.L44
 963 0034 DFE803F0 		tbb	[pc, r3]
 964              	.LVL63:
 965              	.L49:
 966 0038 13       		.byte	(.L52-.L49)/2
ARM GAS  C:\Users\user\AppData\Local\Temp\ccXUtaRu.s 			page 28


 967 0039 18       		.byte	(.L51-.L49)/2
 968 003a 1D       		.byte	(.L50-.L49)/2
 969 003b 22       		.byte	(.L48-.L49)/2
 970              		.p2align 1
 971              	.L45:
 566:bsp/libraries/drivers/src/at32f435_437_adc.c ****     tmp_reg &= ~(0x07 << 3 * (adc_channel - ADC_CHANNEL_10));
 972              		.loc 1 566 5 is_stmt 1 view .LVU254
 566:bsp/libraries/drivers/src/at32f435_437_adc.c ****     tmp_reg &= ~(0x07 << 3 * (adc_channel - ADC_CHANNEL_10));
 973              		.loc 1 566 13 is_stmt 0 view .LVU255
 974 003c C468     		ldr	r4, [r0, #12]
 975              	.LVL64:
 567:bsp/libraries/drivers/src/at32f435_437_adc.c ****     tmp_reg |= adc_sampletime << 3 * (adc_channel - ADC_CHANNEL_10);
 976              		.loc 1 567 5 is_stmt 1 view .LVU256
 567:bsp/libraries/drivers/src/at32f435_437_adc.c ****     tmp_reg |= adc_sampletime << 3 * (adc_channel - ADC_CHANNEL_10);
 977              		.loc 1 567 43 is_stmt 0 view .LVU257
 978 003e A1F10A0C 		sub	ip, r1, #10
 567:bsp/libraries/drivers/src/at32f435_437_adc.c ****     tmp_reg |= adc_sampletime << 3 * (adc_channel - ADC_CHANNEL_10);
 979              		.loc 1 567 28 view .LVU258
 980 0042 0CEB4C0C 		add	ip, ip, ip, lsl #1
 567:bsp/libraries/drivers/src/at32f435_437_adc.c ****     tmp_reg |= adc_sampletime << 3 * (adc_channel - ADC_CHANNEL_10);
 981              		.loc 1 567 23 view .LVU259
 982 0046 4FF0070E 		mov	lr, #7
 983 004a 0EFA0CFE 		lsl	lr, lr, ip
 567:bsp/libraries/drivers/src/at32f435_437_adc.c ****     tmp_reg |= adc_sampletime << 3 * (adc_channel - ADC_CHANNEL_10);
 984              		.loc 1 567 13 view .LVU260
 985 004e 24EA0E0E 		bic	lr, r4, lr
 986              	.LVL65:
 568:bsp/libraries/drivers/src/at32f435_437_adc.c ****     adc_x->spt1 = tmp_reg;
 987              		.loc 1 568 5 is_stmt 1 view .LVU261
 568:bsp/libraries/drivers/src/at32f435_437_adc.c ****     adc_x->spt1 = tmp_reg;
 988              		.loc 1 568 31 is_stmt 0 view .LVU262
 989 0052 03FA0CF3 		lsl	r3, r3, ip
 990              	.LVL66:
 568:bsp/libraries/drivers/src/at32f435_437_adc.c ****     adc_x->spt1 = tmp_reg;
 991              		.loc 1 568 13 view .LVU263
 992 0056 43EA0E03 		orr	r3, r3, lr
 993              	.LVL67:
 569:bsp/libraries/drivers/src/at32f435_437_adc.c ****   }
 994              		.loc 1 569 5 is_stmt 1 view .LVU264
 569:bsp/libraries/drivers/src/at32f435_437_adc.c ****   }
 995              		.loc 1 569 17 is_stmt 0 view .LVU265
 996 005a C360     		str	r3, [r0, #12]
 997 005c E0E7     		b	.L46
 998              	.LVL68:
 999              	.L52:
 574:bsp/libraries/drivers/src/at32f435_437_adc.c ****   {
 575:bsp/libraries/drivers/src/at32f435_437_adc.c ****     case 1:
 576:bsp/libraries/drivers/src/at32f435_437_adc.c ****       adc_x->psq_bit.psn1 = adc_channel;
 1000              		.loc 1 576 7 is_stmt 1 view .LVU266
 1001              		.loc 1 576 27 is_stmt 0 view .LVU267
 1002 005e 836B     		ldr	r3, [r0, #56]
 1003              	.LVL69:
 1004              		.loc 1 576 27 view .LVU268
 1005 0060 61F30403 		bfi	r3, r1, #0, #5
 1006 0064 8363     		str	r3, [r0, #56]
 577:bsp/libraries/drivers/src/at32f435_437_adc.c ****       break;
 1007              		.loc 1 577 7 is_stmt 1 view .LVU269
ARM GAS  C:\Users\user\AppData\Local\Temp\ccXUtaRu.s 			page 29


 1008              	.L44:
 578:bsp/libraries/drivers/src/at32f435_437_adc.c ****     case 2:
 579:bsp/libraries/drivers/src/at32f435_437_adc.c ****       adc_x->psq_bit.psn2 = adc_channel;
 580:bsp/libraries/drivers/src/at32f435_437_adc.c ****       break;
 581:bsp/libraries/drivers/src/at32f435_437_adc.c ****     case 3:
 582:bsp/libraries/drivers/src/at32f435_437_adc.c ****       adc_x->psq_bit.psn3 = adc_channel;
 583:bsp/libraries/drivers/src/at32f435_437_adc.c ****       break;
 584:bsp/libraries/drivers/src/at32f435_437_adc.c ****     case 4:
 585:bsp/libraries/drivers/src/at32f435_437_adc.c ****       adc_x->psq_bit.psn4 = adc_channel;
 586:bsp/libraries/drivers/src/at32f435_437_adc.c ****       break;
 587:bsp/libraries/drivers/src/at32f435_437_adc.c ****     default:
 588:bsp/libraries/drivers/src/at32f435_437_adc.c ****       break;
 589:bsp/libraries/drivers/src/at32f435_437_adc.c ****   }
 590:bsp/libraries/drivers/src/at32f435_437_adc.c **** }
 1009              		.loc 1 590 1 is_stmt 0 view .LVU270
 1010 0066 10BD     		pop	{r4, pc}
 1011              	.LVL70:
 1012              	.L51:
 579:bsp/libraries/drivers/src/at32f435_437_adc.c ****       break;
 1013              		.loc 1 579 7 is_stmt 1 view .LVU271
 579:bsp/libraries/drivers/src/at32f435_437_adc.c ****       break;
 1014              		.loc 1 579 27 is_stmt 0 view .LVU272
 1015 0068 836B     		ldr	r3, [r0, #56]
 1016              	.LVL71:
 579:bsp/libraries/drivers/src/at32f435_437_adc.c ****       break;
 1017              		.loc 1 579 27 view .LVU273
 1018 006a 61F34913 		bfi	r3, r1, #5, #5
 1019 006e 8363     		str	r3, [r0, #56]
 580:bsp/libraries/drivers/src/at32f435_437_adc.c ****     case 3:
 1020              		.loc 1 580 7 is_stmt 1 view .LVU274
 1021 0070 F9E7     		b	.L44
 1022              	.LVL72:
 1023              	.L50:
 582:bsp/libraries/drivers/src/at32f435_437_adc.c ****       break;
 1024              		.loc 1 582 7 view .LVU275
 582:bsp/libraries/drivers/src/at32f435_437_adc.c ****       break;
 1025              		.loc 1 582 27 is_stmt 0 view .LVU276
 1026 0072 836B     		ldr	r3, [r0, #56]
 1027              	.LVL73:
 582:bsp/libraries/drivers/src/at32f435_437_adc.c ****       break;
 1028              		.loc 1 582 27 view .LVU277
 1029 0074 61F38E23 		bfi	r3, r1, #10, #5
 1030 0078 8363     		str	r3, [r0, #56]
 583:bsp/libraries/drivers/src/at32f435_437_adc.c ****     case 4:
 1031              		.loc 1 583 7 is_stmt 1 view .LVU278
 1032 007a F4E7     		b	.L44
 1033              	.LVL74:
 1034              	.L48:
 585:bsp/libraries/drivers/src/at32f435_437_adc.c ****       break;
 1035              		.loc 1 585 7 view .LVU279
 585:bsp/libraries/drivers/src/at32f435_437_adc.c ****       break;
 1036              		.loc 1 585 27 is_stmt 0 view .LVU280
 1037 007c 836B     		ldr	r3, [r0, #56]
 1038              	.LVL75:
 585:bsp/libraries/drivers/src/at32f435_437_adc.c ****       break;
 1039              		.loc 1 585 27 view .LVU281
 1040 007e 61F3D333 		bfi	r3, r1, #15, #5
ARM GAS  C:\Users\user\AppData\Local\Temp\ccXUtaRu.s 			page 30


 1041 0082 8363     		str	r3, [r0, #56]
 586:bsp/libraries/drivers/src/at32f435_437_adc.c ****     default:
 1042              		.loc 1 586 7 is_stmt 1 view .LVU282
 1043              		.loc 1 590 1 is_stmt 0 view .LVU283
 1044 0084 EFE7     		b	.L44
 1045              		.cfi_endproc
 1046              	.LFE154:
 1048              		.section	.text.adc_ordinary_conversion_trigger_set,"ax",%progbits
 1049              		.align	1
 1050              		.global	adc_ordinary_conversion_trigger_set
 1051              		.syntax unified
 1052              		.thumb
 1053              		.thumb_func
 1055              	adc_ordinary_conversion_trigger_set:
 1056              	.LVL76:
 1057              	.LFB155:
 591:bsp/libraries/drivers/src/at32f435_437_adc.c **** 
 592:bsp/libraries/drivers/src/at32f435_437_adc.c **** /**
 593:bsp/libraries/drivers/src/at32f435_437_adc.c ****   * @brief  set the ordinary channel's external trigger edge and
 594:bsp/libraries/drivers/src/at32f435_437_adc.c ****   *         set external trigger event of the specified adc peripheral.
 595:bsp/libraries/drivers/src/at32f435_437_adc.c ****   * @param  adc_x: select the adc peripheral.
 596:bsp/libraries/drivers/src/at32f435_437_adc.c ****   *         this parameter can be one of the following values:
 597:bsp/libraries/drivers/src/at32f435_437_adc.c ****   *         - ADC1, ADC2, ADC3.
 598:bsp/libraries/drivers/src/at32f435_437_adc.c ****   * @param  adc_ordinary_trig: select the external trigger event.
 599:bsp/libraries/drivers/src/at32f435_437_adc.c ****   *         this parameter can be one of the following values:
 600:bsp/libraries/drivers/src/at32f435_437_adc.c ****   *         - ADC_ORDINARY_TRIG_TMR1CH1     - ADC_ORDINARY_TRIG_TMR1CH2      - ADC_ORDINARY_TRIG_TM
 601:bsp/libraries/drivers/src/at32f435_437_adc.c ****   *         - ADC_ORDINARY_TRIG_TMR2CH3     - ADC_ORDINARY_TRIG_TMR2CH4      - ADC_ORDINARY_TRIG_TM
 602:bsp/libraries/drivers/src/at32f435_437_adc.c ****   *         - ADC_ORDINARY_TRIG_TMR3TRGOUT  - ADC_ORDINARY_TRIG_TMR4CH4      - ADC_ORDINARY_TRIG_TM
 603:bsp/libraries/drivers/src/at32f435_437_adc.c ****   *         - ADC_ORDINARY_TRIG_TMR5CH3     - ADC_ORDINARY_TRIG_TMR8CH1      - ADC_ORDINARY_TRIG_TM
 604:bsp/libraries/drivers/src/at32f435_437_adc.c ****   *         - ADC_ORDINARY_TRIG_TMR20TRGOUT - ADC_ORDINARY_TRIG_TMR20TRGOUT2 - ADC_ORDINARY_TRIG_TM
 605:bsp/libraries/drivers/src/at32f435_437_adc.c ****   *         - ADC_ORDINARY_TRIG_TMR20CH3    - ADC_ORDINARY_TRIG_TMR8TRGOUT2  - ADC_ORDINARY_TRIG_TM
 606:bsp/libraries/drivers/src/at32f435_437_adc.c ****   *         - ADC_ORDINARY_TRIG_TMR6TRGOUT  - ADC_ORDINARY_TRIG_TMR3CH4      - ADC_ORDINARY_TRIG_TM
 607:bsp/libraries/drivers/src/at32f435_437_adc.c ****   *         - ADC_ORDINARY_TRIG_TMR2CH1     - ADC_ORDINARY_TRIG_TMR7TRGOUT
 608:bsp/libraries/drivers/src/at32f435_437_adc.c ****   * @param  adc_ordinary_trig_edge: ordinary channel conversion's external_trigger_edge.
 609:bsp/libraries/drivers/src/at32f435_437_adc.c ****   *         this parameter can be one of the following values:
 610:bsp/libraries/drivers/src/at32f435_437_adc.c ****   *         - ADC_ORDINARY_TRIG_EDGE_NONE
 611:bsp/libraries/drivers/src/at32f435_437_adc.c ****   *         - ADC_ORDINARY_TRIG_EDGE_RISING
 612:bsp/libraries/drivers/src/at32f435_437_adc.c ****   *         - ADC_ORDINARY_TRIG_EDGE_FALLING
 613:bsp/libraries/drivers/src/at32f435_437_adc.c ****   *         - ADC_ORDINARY_TRIG_EDGE_RISING_FALLING
 614:bsp/libraries/drivers/src/at32f435_437_adc.c ****   * @retval none
 615:bsp/libraries/drivers/src/at32f435_437_adc.c ****   */
 616:bsp/libraries/drivers/src/at32f435_437_adc.c **** void adc_ordinary_conversion_trigger_set(adc_type *adc_x, adc_ordinary_trig_select_type adc_ordinar
 617:bsp/libraries/drivers/src/at32f435_437_adc.c **** {
 1058              		.loc 1 617 1 is_stmt 1 view -0
 1059              		.cfi_startproc
 1060              		@ args = 0, pretend = 0, frame = 0
 1061              		@ frame_needed = 0, uses_anonymous_args = 0
 1062              		@ link register save eliminated.
 618:bsp/libraries/drivers/src/at32f435_437_adc.c ****   if(adc_ordinary_trig > ADC_ORDINARY_TRIG_EXINT11)
 1063              		.loc 1 618 3 view .LVU285
 1064              		.loc 1 618 5 is_stmt 0 view .LVU286
 1065 0000 0F29     		cmp	r1, #15
 1066 0002 0CD9     		bls	.L55
 619:bsp/libraries/drivers/src/at32f435_437_adc.c ****   {
 620:bsp/libraries/drivers/src/at32f435_437_adc.c ****     adc_x->ctrl2_bit.octesel_h = 1;
 1067              		.loc 1 620 5 is_stmt 1 view .LVU287
 1068              		.loc 1 620 32 is_stmt 0 view .LVU288
ARM GAS  C:\Users\user\AppData\Local\Temp\ccXUtaRu.s 			page 31


 1069 0004 8368     		ldr	r3, [r0, #8]
 1070 0006 43F00043 		orr	r3, r3, #-2147483648
 1071 000a 8360     		str	r3, [r0, #8]
 621:bsp/libraries/drivers/src/at32f435_437_adc.c ****     adc_x->ctrl2_bit.octesel_l = adc_ordinary_trig & 0x0F;
 1072              		.loc 1 621 5 is_stmt 1 view .LVU289
 1073              		.loc 1 621 32 is_stmt 0 view .LVU290
 1074 000c 8368     		ldr	r3, [r0, #8]
 1075 000e 61F31B63 		bfi	r3, r1, #24, #4
 1076 0012 8360     		str	r3, [r0, #8]
 1077              	.L56:
 622:bsp/libraries/drivers/src/at32f435_437_adc.c ****   }
 623:bsp/libraries/drivers/src/at32f435_437_adc.c ****   else
 624:bsp/libraries/drivers/src/at32f435_437_adc.c ****   {
 625:bsp/libraries/drivers/src/at32f435_437_adc.c ****     adc_x->ctrl2_bit.octesel_h = 0;
 626:bsp/libraries/drivers/src/at32f435_437_adc.c ****     adc_x->ctrl2_bit.octesel_l = adc_ordinary_trig & 0x0F;
 627:bsp/libraries/drivers/src/at32f435_437_adc.c ****   }
 628:bsp/libraries/drivers/src/at32f435_437_adc.c ****   adc_x->ctrl2_bit.ocete = adc_ordinary_trig_edge;
 1078              		.loc 1 628 3 is_stmt 1 view .LVU291
 1079              		.loc 1 628 26 is_stmt 0 view .LVU292
 1080 0014 8368     		ldr	r3, [r0, #8]
 1081 0016 62F31D73 		bfi	r3, r2, #28, #2
 1082 001a 8360     		str	r3, [r0, #8]
 629:bsp/libraries/drivers/src/at32f435_437_adc.c **** }
 1083              		.loc 1 629 1 view .LVU293
 1084 001c 7047     		bx	lr
 1085              	.L55:
 625:bsp/libraries/drivers/src/at32f435_437_adc.c ****     adc_x->ctrl2_bit.octesel_l = adc_ordinary_trig & 0x0F;
 1086              		.loc 1 625 5 is_stmt 1 view .LVU294
 625:bsp/libraries/drivers/src/at32f435_437_adc.c ****     adc_x->ctrl2_bit.octesel_l = adc_ordinary_trig & 0x0F;
 1087              		.loc 1 625 32 is_stmt 0 view .LVU295
 1088 001e 8368     		ldr	r3, [r0, #8]
 1089 0020 6FF3DF73 		bfc	r3, #31, #1
 1090 0024 8360     		str	r3, [r0, #8]
 626:bsp/libraries/drivers/src/at32f435_437_adc.c ****   }
 1091              		.loc 1 626 5 is_stmt 1 view .LVU296
 626:bsp/libraries/drivers/src/at32f435_437_adc.c ****   }
 1092              		.loc 1 626 32 is_stmt 0 view .LVU297
 1093 0026 8368     		ldr	r3, [r0, #8]
 1094 0028 61F31B63 		bfi	r3, r1, #24, #4
 1095 002c 8360     		str	r3, [r0, #8]
 1096 002e F1E7     		b	.L56
 1097              		.cfi_endproc
 1098              	.LFE155:
 1100              		.section	.text.adc_preempt_conversion_trigger_set,"ax",%progbits
 1101              		.align	1
 1102              		.global	adc_preempt_conversion_trigger_set
 1103              		.syntax unified
 1104              		.thumb
 1105              		.thumb_func
 1107              	adc_preempt_conversion_trigger_set:
 1108              	.LVL77:
 1109              	.LFB156:
 630:bsp/libraries/drivers/src/at32f435_437_adc.c **** 
 631:bsp/libraries/drivers/src/at32f435_437_adc.c **** /**
 632:bsp/libraries/drivers/src/at32f435_437_adc.c ****   * @brief  enable or disable the preempt channel's external trigger and
 633:bsp/libraries/drivers/src/at32f435_437_adc.c ****   *         set external trigger event of the specified adc peripheral.
 634:bsp/libraries/drivers/src/at32f435_437_adc.c ****   * @param  adc_x: select the adc peripheral.
ARM GAS  C:\Users\user\AppData\Local\Temp\ccXUtaRu.s 			page 32


 635:bsp/libraries/drivers/src/at32f435_437_adc.c ****   *         this parameter can be one of the following values:
 636:bsp/libraries/drivers/src/at32f435_437_adc.c ****   *         - ADC1, ADC2, ADC3.
 637:bsp/libraries/drivers/src/at32f435_437_adc.c ****   * @param  adc_preempt_trig: select the external trigger event.
 638:bsp/libraries/drivers/src/at32f435_437_adc.c ****   *         this parameter can be one of the following values:
 639:bsp/libraries/drivers/src/at32f435_437_adc.c ****   *         - ADC_PREEMPT_TRIG_TMR1CH4      - ADC_PREEMPT_TRIG_TMR1TRGOUT   - ADC_PREEMPT_TRIG_TMR2
 640:bsp/libraries/drivers/src/at32f435_437_adc.c ****   *         - ADC_PREEMPT_TRIG_TMR3CH2      - ADC_PREEMPT_TRIG_TMR3CH4      - ADC_PREEMPT_TRIG_TMR4
 641:bsp/libraries/drivers/src/at32f435_437_adc.c ****   *         - ADC_PREEMPT_TRIG_TMR4CH3      - ADC_PREEMPT_TRIG_TMR4TRGOUT   - ADC_PREEMPT_TRIG_TMR5
 642:bsp/libraries/drivers/src/at32f435_437_adc.c ****   *         - ADC_PREEMPT_TRIG_TMR8CH2      - ADC_PREEMPT_TRIG_TMR8CH3      - ADC_PREEMPT_TRIG_TMR8
 643:bsp/libraries/drivers/src/at32f435_437_adc.c ****   *         - ADC_PREEMPT_TRIG_TMR20TRGOUT  - ADC_PREEMPT_TRIG_TMR20TRGOUT2 - ADC_PREEMPT_TRIG_TMR2
 644:bsp/libraries/drivers/src/at32f435_437_adc.c ****   *         - ADC_PREEMPT_TRIG_TMR8TRGOUT   - ADC_PREEMPT_TRIG_TMR8TRGOUT2  - ADC_PREEMPT_TRIG_TMR3
 645:bsp/libraries/drivers/src/at32f435_437_adc.c ****   *         - ADC_PREEMPT_TRIG_TMR3CH1      - ADC_PREEMPT_TRIG_TMR6TRGOUT   - ADC_PREEMPT_TRIG_TMR4
 646:bsp/libraries/drivers/src/at32f435_437_adc.c ****   *         - ADC_PREEMPT_TRIG_TMR20CH2     - ADC_PREEMPT_TRIG_TMR7TRGOUT
 647:bsp/libraries/drivers/src/at32f435_437_adc.c ****   * @param  adc_preempt_trig_edge: preempt channel conversion's external_trigger_edge.
 648:bsp/libraries/drivers/src/at32f435_437_adc.c ****   *         this parameter can be one of the following values:
 649:bsp/libraries/drivers/src/at32f435_437_adc.c ****   *         - ADC_PREEMPT_TRIG_EDGE_NONE
 650:bsp/libraries/drivers/src/at32f435_437_adc.c ****   *         - ADC_PREEMPT_TRIG_EDGE_RISING
 651:bsp/libraries/drivers/src/at32f435_437_adc.c ****   *         - ADC_PREEMPT_TRIG_EDGE_FALLING
 652:bsp/libraries/drivers/src/at32f435_437_adc.c ****   *         - ADC_PREEMPT_TRIG_EDGE_RISING_FALLING
 653:bsp/libraries/drivers/src/at32f435_437_adc.c ****   * @retval none
 654:bsp/libraries/drivers/src/at32f435_437_adc.c ****   */
 655:bsp/libraries/drivers/src/at32f435_437_adc.c **** void adc_preempt_conversion_trigger_set(adc_type *adc_x, adc_preempt_trig_select_type adc_preempt_t
 656:bsp/libraries/drivers/src/at32f435_437_adc.c **** {
 1110              		.loc 1 656 1 is_stmt 1 view -0
 1111              		.cfi_startproc
 1112              		@ args = 0, pretend = 0, frame = 0
 1113              		@ frame_needed = 0, uses_anonymous_args = 0
 1114              		@ link register save eliminated.
 657:bsp/libraries/drivers/src/at32f435_437_adc.c ****   if(adc_preempt_trig > ADC_PREEMPT_TRIG_EXINT15)
 1115              		.loc 1 657 3 view .LVU299
 1116              		.loc 1 657 5 is_stmt 0 view .LVU300
 1117 0000 0F29     		cmp	r1, #15
 1118 0002 0CD9     		bls	.L58
 658:bsp/libraries/drivers/src/at32f435_437_adc.c ****   {
 659:bsp/libraries/drivers/src/at32f435_437_adc.c ****     adc_x->ctrl2_bit.pctesel_h = 1;
 1119              		.loc 1 659 5 is_stmt 1 view .LVU301
 1120              		.loc 1 659 32 is_stmt 0 view .LVU302
 1121 0004 8368     		ldr	r3, [r0, #8]
 1122 0006 43F40003 		orr	r3, r3, #8388608
 1123 000a 8360     		str	r3, [r0, #8]
 660:bsp/libraries/drivers/src/at32f435_437_adc.c ****     adc_x->ctrl2_bit.pctesel_l = adc_preempt_trig & 0x0F;
 1124              		.loc 1 660 5 is_stmt 1 view .LVU303
 1125              		.loc 1 660 32 is_stmt 0 view .LVU304
 1126 000c 8368     		ldr	r3, [r0, #8]
 1127 000e 61F31343 		bfi	r3, r1, #16, #4
 1128 0012 8360     		str	r3, [r0, #8]
 1129              	.L59:
 661:bsp/libraries/drivers/src/at32f435_437_adc.c ****   }
 662:bsp/libraries/drivers/src/at32f435_437_adc.c ****   else
 663:bsp/libraries/drivers/src/at32f435_437_adc.c ****   {
 664:bsp/libraries/drivers/src/at32f435_437_adc.c ****     adc_x->ctrl2_bit.pctesel_h = 0;
 665:bsp/libraries/drivers/src/at32f435_437_adc.c ****     adc_x->ctrl2_bit.pctesel_l = adc_preempt_trig & 0x0F;
 666:bsp/libraries/drivers/src/at32f435_437_adc.c ****   }
 667:bsp/libraries/drivers/src/at32f435_437_adc.c ****   adc_x->ctrl2_bit.pcete = adc_preempt_trig_edge;
 1130              		.loc 1 667 3 is_stmt 1 view .LVU305
 1131              		.loc 1 667 26 is_stmt 0 view .LVU306
 1132 0014 8368     		ldr	r3, [r0, #8]
 1133 0016 62F31553 		bfi	r3, r2, #20, #2
ARM GAS  C:\Users\user\AppData\Local\Temp\ccXUtaRu.s 			page 33


 1134 001a 8360     		str	r3, [r0, #8]
 668:bsp/libraries/drivers/src/at32f435_437_adc.c **** }
 1135              		.loc 1 668 1 view .LVU307
 1136 001c 7047     		bx	lr
 1137              	.L58:
 664:bsp/libraries/drivers/src/at32f435_437_adc.c ****     adc_x->ctrl2_bit.pctesel_l = adc_preempt_trig & 0x0F;
 1138              		.loc 1 664 5 is_stmt 1 view .LVU308
 664:bsp/libraries/drivers/src/at32f435_437_adc.c ****     adc_x->ctrl2_bit.pctesel_l = adc_preempt_trig & 0x0F;
 1139              		.loc 1 664 32 is_stmt 0 view .LVU309
 1140 001e 8368     		ldr	r3, [r0, #8]
 1141 0020 6FF3D753 		bfc	r3, #23, #1
 1142 0024 8360     		str	r3, [r0, #8]
 665:bsp/libraries/drivers/src/at32f435_437_adc.c ****   }
 1143              		.loc 1 665 5 is_stmt 1 view .LVU310
 665:bsp/libraries/drivers/src/at32f435_437_adc.c ****   }
 1144              		.loc 1 665 32 is_stmt 0 view .LVU311
 1145 0026 8368     		ldr	r3, [r0, #8]
 1146 0028 61F31343 		bfi	r3, r1, #16, #4
 1147 002c 8360     		str	r3, [r0, #8]
 1148 002e F1E7     		b	.L59
 1149              		.cfi_endproc
 1150              	.LFE156:
 1152              		.section	.text.adc_preempt_offset_value_set,"ax",%progbits
 1153              		.align	1
 1154              		.global	adc_preempt_offset_value_set
 1155              		.syntax unified
 1156              		.thumb
 1157              		.thumb_func
 1159              	adc_preempt_offset_value_set:
 1160              	.LVL78:
 1161              	.LFB157:
 669:bsp/libraries/drivers/src/at32f435_437_adc.c **** 
 670:bsp/libraries/drivers/src/at32f435_437_adc.c **** /**
 671:bsp/libraries/drivers/src/at32f435_437_adc.c ****   * @brief  set preempt channel's conversion value offset of the specified adc peripheral.
 672:bsp/libraries/drivers/src/at32f435_437_adc.c ****   * @param  adc_x: select the adc peripheral.
 673:bsp/libraries/drivers/src/at32f435_437_adc.c ****   *         this parameter can be one of the following values:
 674:bsp/libraries/drivers/src/at32f435_437_adc.c ****   *         - ADC1, ADC2, ADC3.
 675:bsp/libraries/drivers/src/at32f435_437_adc.c ****   * @param  adc_preempt_channel: select the preempt channel.
 676:bsp/libraries/drivers/src/at32f435_437_adc.c ****   *         this parameter can be one of the following values:
 677:bsp/libraries/drivers/src/at32f435_437_adc.c ****   *         - ADC_PREEMPT_CHANNEL_1
 678:bsp/libraries/drivers/src/at32f435_437_adc.c ****   *         - ADC_PREEMPT_CHANNEL_2
 679:bsp/libraries/drivers/src/at32f435_437_adc.c ****   *         - ADC_PREEMPT_CHANNEL_3
 680:bsp/libraries/drivers/src/at32f435_437_adc.c ****   *         - ADC_PREEMPT_CHANNEL_4
 681:bsp/libraries/drivers/src/at32f435_437_adc.c ****   * @param  adc_offset_value: set the adc preempt channel's conversion value offset.
 682:bsp/libraries/drivers/src/at32f435_437_adc.c ****   *         this parameter can be:
 683:bsp/libraries/drivers/src/at32f435_437_adc.c ****   *         - (0x000~0xFFF)
 684:bsp/libraries/drivers/src/at32f435_437_adc.c ****   * @retval none
 685:bsp/libraries/drivers/src/at32f435_437_adc.c ****   */
 686:bsp/libraries/drivers/src/at32f435_437_adc.c **** void adc_preempt_offset_value_set(adc_type *adc_x, adc_preempt_channel_type adc_preempt_channel, ui
 687:bsp/libraries/drivers/src/at32f435_437_adc.c **** {
 1162              		.loc 1 687 1 is_stmt 1 view -0
 1163              		.cfi_startproc
 1164              		@ args = 0, pretend = 0, frame = 0
 1165              		@ frame_needed = 0, uses_anonymous_args = 0
 1166              		@ link register save eliminated.
 688:bsp/libraries/drivers/src/at32f435_437_adc.c ****   switch(adc_preempt_channel)
 1167              		.loc 1 688 3 view .LVU313
ARM GAS  C:\Users\user\AppData\Local\Temp\ccXUtaRu.s 			page 34


 1168 0000 0329     		cmp	r1, #3
 1169 0002 16D8     		bhi	.L60
 1170 0004 DFE801F0 		tbb	[pc, r1]
 1171              	.L63:
 1172 0008 02       		.byte	(.L66-.L63)/2
 1173 0009 07       		.byte	(.L65-.L63)/2
 1174 000a 0C       		.byte	(.L64-.L63)/2
 1175 000b 11       		.byte	(.L62-.L63)/2
 1176              		.p2align 1
 1177              	.L66:
 689:bsp/libraries/drivers/src/at32f435_437_adc.c ****   {
 690:bsp/libraries/drivers/src/at32f435_437_adc.c ****     case ADC_PREEMPT_CHANNEL_1:
 691:bsp/libraries/drivers/src/at32f435_437_adc.c ****       adc_x->pcdto1_bit.pcdto1 = adc_offset_value;
 1178              		.loc 1 691 7 view .LVU314
 1179              		.loc 1 691 32 is_stmt 0 view .LVU315
 1180 000c 4369     		ldr	r3, [r0, #20]
 1181 000e 62F30B03 		bfi	r3, r2, #0, #12
 1182 0012 4361     		str	r3, [r0, #20]
 692:bsp/libraries/drivers/src/at32f435_437_adc.c ****       break;
 1183              		.loc 1 692 7 is_stmt 1 view .LVU316
 1184 0014 7047     		bx	lr
 1185              	.L65:
 693:bsp/libraries/drivers/src/at32f435_437_adc.c ****     case ADC_PREEMPT_CHANNEL_2:
 694:bsp/libraries/drivers/src/at32f435_437_adc.c ****       adc_x->pcdto2_bit.pcdto2 = adc_offset_value;
 1186              		.loc 1 694 7 view .LVU317
 1187              		.loc 1 694 32 is_stmt 0 view .LVU318
 1188 0016 8369     		ldr	r3, [r0, #24]
 1189 0018 62F30B03 		bfi	r3, r2, #0, #12
 1190 001c 8361     		str	r3, [r0, #24]
 695:bsp/libraries/drivers/src/at32f435_437_adc.c ****       break;
 1191              		.loc 1 695 7 is_stmt 1 view .LVU319
 1192 001e 7047     		bx	lr
 1193              	.L64:
 696:bsp/libraries/drivers/src/at32f435_437_adc.c ****     case ADC_PREEMPT_CHANNEL_3:
 697:bsp/libraries/drivers/src/at32f435_437_adc.c ****       adc_x->pcdto3_bit.pcdto3 = adc_offset_value;
 1194              		.loc 1 697 7 view .LVU320
 1195              		.loc 1 697 32 is_stmt 0 view .LVU321
 1196 0020 C369     		ldr	r3, [r0, #28]
 1197 0022 62F30B03 		bfi	r3, r2, #0, #12
 1198 0026 C361     		str	r3, [r0, #28]
 698:bsp/libraries/drivers/src/at32f435_437_adc.c ****       break;
 1199              		.loc 1 698 7 is_stmt 1 view .LVU322
 1200 0028 7047     		bx	lr
 1201              	.L62:
 699:bsp/libraries/drivers/src/at32f435_437_adc.c ****     case ADC_PREEMPT_CHANNEL_4:
 700:bsp/libraries/drivers/src/at32f435_437_adc.c ****       adc_x->pcdto4_bit.pcdto4 = adc_offset_value;
 1202              		.loc 1 700 7 view .LVU323
 1203              		.loc 1 700 32 is_stmt 0 view .LVU324
 1204 002a 036A     		ldr	r3, [r0, #32]
 1205 002c 62F30B03 		bfi	r3, r2, #0, #12
 1206 0030 0362     		str	r3, [r0, #32]
 701:bsp/libraries/drivers/src/at32f435_437_adc.c ****       break;
 1207              		.loc 1 701 7 is_stmt 1 view .LVU325
 1208              	.L60:
 702:bsp/libraries/drivers/src/at32f435_437_adc.c ****     default:
 703:bsp/libraries/drivers/src/at32f435_437_adc.c ****       break;
 704:bsp/libraries/drivers/src/at32f435_437_adc.c ****   }
ARM GAS  C:\Users\user\AppData\Local\Temp\ccXUtaRu.s 			page 35


 705:bsp/libraries/drivers/src/at32f435_437_adc.c **** }
 1209              		.loc 1 705 1 is_stmt 0 view .LVU326
 1210 0032 7047     		bx	lr
 1211              		.cfi_endproc
 1212              	.LFE157:
 1214              		.section	.text.adc_ordinary_part_count_set,"ax",%progbits
 1215              		.align	1
 1216              		.global	adc_ordinary_part_count_set
 1217              		.syntax unified
 1218              		.thumb
 1219              		.thumb_func
 1221              	adc_ordinary_part_count_set:
 1222              	.LVL79:
 1223              	.LFB158:
 706:bsp/libraries/drivers/src/at32f435_437_adc.c **** 
 707:bsp/libraries/drivers/src/at32f435_437_adc.c **** /**
 708:bsp/libraries/drivers/src/at32f435_437_adc.c ****   * @brief  set partitioned mode channel count of the specified adc peripheral.
 709:bsp/libraries/drivers/src/at32f435_437_adc.c ****   * @param  adc_x: select the adc peripheral.
 710:bsp/libraries/drivers/src/at32f435_437_adc.c ****   *         this parameter can be one of the following values:
 711:bsp/libraries/drivers/src/at32f435_437_adc.c ****   *         - ADC1, ADC2, ADC3.
 712:bsp/libraries/drivers/src/at32f435_437_adc.c ****   * @param  adc_channel_count: configure the adc partitioned mode channel count.
 713:bsp/libraries/drivers/src/at32f435_437_adc.c ****   *         this parameter can be:
 714:bsp/libraries/drivers/src/at32f435_437_adc.c ****   *         - (0x1~0x8)
 715:bsp/libraries/drivers/src/at32f435_437_adc.c ****   * @retval none
 716:bsp/libraries/drivers/src/at32f435_437_adc.c ****   */
 717:bsp/libraries/drivers/src/at32f435_437_adc.c **** void adc_ordinary_part_count_set(adc_type *adc_x, uint8_t adc_channel_count)
 718:bsp/libraries/drivers/src/at32f435_437_adc.c **** {
 1224              		.loc 1 718 1 is_stmt 1 view -0
 1225              		.cfi_startproc
 1226              		@ args = 0, pretend = 0, frame = 0
 1227              		@ frame_needed = 0, uses_anonymous_args = 0
 1228              		@ link register save eliminated.
 719:bsp/libraries/drivers/src/at32f435_437_adc.c **** 
 720:bsp/libraries/drivers/src/at32f435_437_adc.c ****   adc_x->ctrl1_bit.ocpcnt =  adc_channel_count - 1;
 1229              		.loc 1 720 3 view .LVU328
 1230              		.loc 1 720 48 is_stmt 0 view .LVU329
 1231 0000 0139     		subs	r1, r1, #1
 1232              	.LVL80:
 1233              		.loc 1 720 27 view .LVU330
 1234 0002 4368     		ldr	r3, [r0, #4]
 1235 0004 61F34F33 		bfi	r3, r1, #13, #3
 1236 0008 4360     		str	r3, [r0, #4]
 721:bsp/libraries/drivers/src/at32f435_437_adc.c **** }
 1237              		.loc 1 721 1 view .LVU331
 1238 000a 7047     		bx	lr
 1239              		.cfi_endproc
 1240              	.LFE158:
 1242              		.section	.text.adc_ordinary_part_mode_enable,"ax",%progbits
 1243              		.align	1
 1244              		.global	adc_ordinary_part_mode_enable
 1245              		.syntax unified
 1246              		.thumb
 1247              		.thumb_func
 1249              	adc_ordinary_part_mode_enable:
 1250              	.LVL81:
 1251              	.LFB159:
 722:bsp/libraries/drivers/src/at32f435_437_adc.c **** 
ARM GAS  C:\Users\user\AppData\Local\Temp\ccXUtaRu.s 			page 36


 723:bsp/libraries/drivers/src/at32f435_437_adc.c **** /**
 724:bsp/libraries/drivers/src/at32f435_437_adc.c ****   * @brief  enable or disable the partitioned mode on ordinary channel of the specified adc periphe
 725:bsp/libraries/drivers/src/at32f435_437_adc.c ****   * @param  adc_x: select the adc peripheral.
 726:bsp/libraries/drivers/src/at32f435_437_adc.c ****   *         this parameter can be one of the following values:
 727:bsp/libraries/drivers/src/at32f435_437_adc.c ****   *         - ADC1, ADC2, ADC3.
 728:bsp/libraries/drivers/src/at32f435_437_adc.c ****   * @param  new_state: new state of ordinary channel's partitioned mode.
 729:bsp/libraries/drivers/src/at32f435_437_adc.c ****   *         this parameter can be: TRUE or FALSE.
 730:bsp/libraries/drivers/src/at32f435_437_adc.c ****   * @retval none
 731:bsp/libraries/drivers/src/at32f435_437_adc.c ****   */
 732:bsp/libraries/drivers/src/at32f435_437_adc.c **** void adc_ordinary_part_mode_enable(adc_type *adc_x, confirm_state new_state)
 733:bsp/libraries/drivers/src/at32f435_437_adc.c **** {
 1252              		.loc 1 733 1 is_stmt 1 view -0
 1253              		.cfi_startproc
 1254              		@ args = 0, pretend = 0, frame = 0
 1255              		@ frame_needed = 0, uses_anonymous_args = 0
 1256              		@ link register save eliminated.
 734:bsp/libraries/drivers/src/at32f435_437_adc.c ****   adc_x->ctrl1_bit.ocpen = new_state;
 1257              		.loc 1 734 3 view .LVU333
 1258              		.loc 1 734 26 is_stmt 0 view .LVU334
 1259 0000 4368     		ldr	r3, [r0, #4]
 1260 0002 61F3CB23 		bfi	r3, r1, #11, #1
 1261 0006 4360     		str	r3, [r0, #4]
 735:bsp/libraries/drivers/src/at32f435_437_adc.c **** }
 1262              		.loc 1 735 1 view .LVU335
 1263 0008 7047     		bx	lr
 1264              		.cfi_endproc
 1265              	.LFE159:
 1267              		.section	.text.adc_preempt_part_mode_enable,"ax",%progbits
 1268              		.align	1
 1269              		.global	adc_preempt_part_mode_enable
 1270              		.syntax unified
 1271              		.thumb
 1272              		.thumb_func
 1274              	adc_preempt_part_mode_enable:
 1275              	.LVL82:
 1276              	.LFB160:
 736:bsp/libraries/drivers/src/at32f435_437_adc.c **** 
 737:bsp/libraries/drivers/src/at32f435_437_adc.c **** /**
 738:bsp/libraries/drivers/src/at32f435_437_adc.c ****   * @brief  enable or disable the partitioned mode on preempt channel of the specified adc peripher
 739:bsp/libraries/drivers/src/at32f435_437_adc.c ****   * @param  adc_x: select the adc peripheral.
 740:bsp/libraries/drivers/src/at32f435_437_adc.c ****   *         this parameter can be one of the following values:
 741:bsp/libraries/drivers/src/at32f435_437_adc.c ****   *         - ADC1, ADC2, ADC3.
 742:bsp/libraries/drivers/src/at32f435_437_adc.c ****   * @param  new_state: new state of preempt channel's partitioned mode.
 743:bsp/libraries/drivers/src/at32f435_437_adc.c ****   *         this parameter can be: TRUE or FALSE.
 744:bsp/libraries/drivers/src/at32f435_437_adc.c ****   * @retval none
 745:bsp/libraries/drivers/src/at32f435_437_adc.c ****   */
 746:bsp/libraries/drivers/src/at32f435_437_adc.c **** void adc_preempt_part_mode_enable(adc_type *adc_x, confirm_state new_state)
 747:bsp/libraries/drivers/src/at32f435_437_adc.c **** {
 1277              		.loc 1 747 1 is_stmt 1 view -0
 1278              		.cfi_startproc
 1279              		@ args = 0, pretend = 0, frame = 0
 1280              		@ frame_needed = 0, uses_anonymous_args = 0
 1281              		@ link register save eliminated.
 748:bsp/libraries/drivers/src/at32f435_437_adc.c ****   adc_x->ctrl1_bit.pcpen = new_state;
 1282              		.loc 1 748 3 view .LVU337
 1283              		.loc 1 748 26 is_stmt 0 view .LVU338
 1284 0000 4368     		ldr	r3, [r0, #4]
ARM GAS  C:\Users\user\AppData\Local\Temp\ccXUtaRu.s 			page 37


 1285 0002 61F30C33 		bfi	r3, r1, #12, #1
 1286 0006 4360     		str	r3, [r0, #4]
 749:bsp/libraries/drivers/src/at32f435_437_adc.c **** }
 1287              		.loc 1 749 1 view .LVU339
 1288 0008 7047     		bx	lr
 1289              		.cfi_endproc
 1290              	.LFE160:
 1292              		.section	.text.adc_preempt_auto_mode_enable,"ax",%progbits
 1293              		.align	1
 1294              		.global	adc_preempt_auto_mode_enable
 1295              		.syntax unified
 1296              		.thumb
 1297              		.thumb_func
 1299              	adc_preempt_auto_mode_enable:
 1300              	.LVL83:
 1301              	.LFB161:
 750:bsp/libraries/drivers/src/at32f435_437_adc.c **** 
 751:bsp/libraries/drivers/src/at32f435_437_adc.c **** /**
 752:bsp/libraries/drivers/src/at32f435_437_adc.c ****   * @brief  enable or disable automatic preempt group conversion of the specified adc peripheral.
 753:bsp/libraries/drivers/src/at32f435_437_adc.c ****   * @param  adc_x: select the adc peripheral.
 754:bsp/libraries/drivers/src/at32f435_437_adc.c ****   *         this parameter can be one of the following values:
 755:bsp/libraries/drivers/src/at32f435_437_adc.c ****   *         - ADC1, ADC2, ADC3.
 756:bsp/libraries/drivers/src/at32f435_437_adc.c ****   * @param  new_state: new state of automatic preempt group conversion.
 757:bsp/libraries/drivers/src/at32f435_437_adc.c ****   *         this parameter can be: TRUE or FALSE.
 758:bsp/libraries/drivers/src/at32f435_437_adc.c ****   * @retval none
 759:bsp/libraries/drivers/src/at32f435_437_adc.c ****   */
 760:bsp/libraries/drivers/src/at32f435_437_adc.c **** void adc_preempt_auto_mode_enable(adc_type *adc_x, confirm_state new_state)
 761:bsp/libraries/drivers/src/at32f435_437_adc.c **** {
 1302              		.loc 1 761 1 is_stmt 1 view -0
 1303              		.cfi_startproc
 1304              		@ args = 0, pretend = 0, frame = 0
 1305              		@ frame_needed = 0, uses_anonymous_args = 0
 1306              		@ link register save eliminated.
 762:bsp/libraries/drivers/src/at32f435_437_adc.c ****   adc_x->ctrl1_bit.pcautoen = new_state;
 1307              		.loc 1 762 3 view .LVU341
 1308              		.loc 1 762 29 is_stmt 0 view .LVU342
 1309 0000 4368     		ldr	r3, [r0, #4]
 1310 0002 61F38A23 		bfi	r3, r1, #10, #1
 1311 0006 4360     		str	r3, [r0, #4]
 763:bsp/libraries/drivers/src/at32f435_437_adc.c **** }
 1312              		.loc 1 763 1 view .LVU343
 1313 0008 7047     		bx	lr
 1314              		.cfi_endproc
 1315              	.LFE161:
 1317              		.section	.text.adc_conversion_stop,"ax",%progbits
 1318              		.align	1
 1319              		.global	adc_conversion_stop
 1320              		.syntax unified
 1321              		.thumb
 1322              		.thumb_func
 1324              	adc_conversion_stop:
 1325              	.LVL84:
 1326              	.LFB162:
 764:bsp/libraries/drivers/src/at32f435_437_adc.c **** 
 765:bsp/libraries/drivers/src/at32f435_437_adc.c **** /**
 766:bsp/libraries/drivers/src/at32f435_437_adc.c ****   * @brief  stop the ongoing conversion of the specified adc peripheral.
 767:bsp/libraries/drivers/src/at32f435_437_adc.c ****   * @param  adc_x: select the adc peripheral.
ARM GAS  C:\Users\user\AppData\Local\Temp\ccXUtaRu.s 			page 38


 768:bsp/libraries/drivers/src/at32f435_437_adc.c ****   *         this parameter can be one of the following values:
 769:bsp/libraries/drivers/src/at32f435_437_adc.c ****   *         - ADC1, ADC2, ADC3.
 770:bsp/libraries/drivers/src/at32f435_437_adc.c ****   * @retval none
 771:bsp/libraries/drivers/src/at32f435_437_adc.c ****   */
 772:bsp/libraries/drivers/src/at32f435_437_adc.c **** void adc_conversion_stop(adc_type *adc_x)
 773:bsp/libraries/drivers/src/at32f435_437_adc.c **** {
 1327              		.loc 1 773 1 is_stmt 1 view -0
 1328              		.cfi_startproc
 1329              		@ args = 0, pretend = 0, frame = 0
 1330              		@ frame_needed = 0, uses_anonymous_args = 0
 1331              		@ link register save eliminated.
 774:bsp/libraries/drivers/src/at32f435_437_adc.c ****   adc_x->ctrl2_bit.adabrt = TRUE;
 1332              		.loc 1 774 3 view .LVU345
 1333              		.loc 1 774 27 is_stmt 0 view .LVU346
 1334 0000 8368     		ldr	r3, [r0, #8]
 1335 0002 43F01003 		orr	r3, r3, #16
 1336 0006 8360     		str	r3, [r0, #8]
 775:bsp/libraries/drivers/src/at32f435_437_adc.c **** }
 1337              		.loc 1 775 1 view .LVU347
 1338 0008 7047     		bx	lr
 1339              		.cfi_endproc
 1340              	.LFE162:
 1342              		.section	.text.adc_conversion_stop_status_get,"ax",%progbits
 1343              		.align	1
 1344              		.global	adc_conversion_stop_status_get
 1345              		.syntax unified
 1346              		.thumb
 1347              		.thumb_func
 1349              	adc_conversion_stop_status_get:
 1350              	.LVL85:
 1351              	.LFB163:
 776:bsp/libraries/drivers/src/at32f435_437_adc.c **** 
 777:bsp/libraries/drivers/src/at32f435_437_adc.c **** /**
 778:bsp/libraries/drivers/src/at32f435_437_adc.c ****   * @brief  get stop conversion's status of the specified adc peripheral.
 779:bsp/libraries/drivers/src/at32f435_437_adc.c ****   * @param  adc_x: select the adc peripheral.
 780:bsp/libraries/drivers/src/at32f435_437_adc.c ****   *         this parameter can be one of the following values:
 781:bsp/libraries/drivers/src/at32f435_437_adc.c ****   *         - ADC1, ADC2, ADC3.
 782:bsp/libraries/drivers/src/at32f435_437_adc.c ****   * @retval the new state of stop conversion's status(SET or RESET).
 783:bsp/libraries/drivers/src/at32f435_437_adc.c ****   */
 784:bsp/libraries/drivers/src/at32f435_437_adc.c **** flag_status adc_conversion_stop_status_get(adc_type *adc_x)
 785:bsp/libraries/drivers/src/at32f435_437_adc.c **** {
 1352              		.loc 1 785 1 is_stmt 1 view -0
 1353              		.cfi_startproc
 1354              		@ args = 0, pretend = 0, frame = 0
 1355              		@ frame_needed = 0, uses_anonymous_args = 0
 1356              		@ link register save eliminated.
 786:bsp/libraries/drivers/src/at32f435_437_adc.c ****   if(adc_x->ctrl2_bit.adabrt)
 1357              		.loc 1 786 3 view .LVU349
 1358              		.loc 1 786 22 is_stmt 0 view .LVU350
 1359 0000 8368     		ldr	r3, [r0, #8]
 1360              		.loc 1 786 5 view .LVU351
 1361 0002 13F0100F 		tst	r3, #16
 1362 0006 01D0     		beq	.L74
 787:bsp/libraries/drivers/src/at32f435_437_adc.c ****   {
 788:bsp/libraries/drivers/src/at32f435_437_adc.c ****     return SET;
 1363              		.loc 1 788 12 view .LVU352
 1364 0008 0120     		movs	r0, #1
ARM GAS  C:\Users\user\AppData\Local\Temp\ccXUtaRu.s 			page 39


 1365              	.LVL86:
 1366              		.loc 1 788 12 view .LVU353
 1367 000a 7047     		bx	lr
 1368              	.LVL87:
 1369              	.L74:
 789:bsp/libraries/drivers/src/at32f435_437_adc.c ****   }
 790:bsp/libraries/drivers/src/at32f435_437_adc.c ****   else
 791:bsp/libraries/drivers/src/at32f435_437_adc.c ****   {
 792:bsp/libraries/drivers/src/at32f435_437_adc.c ****     return RESET;
 1370              		.loc 1 792 12 view .LVU354
 1371 000c 0020     		movs	r0, #0
 1372              	.LVL88:
 793:bsp/libraries/drivers/src/at32f435_437_adc.c ****   }
 794:bsp/libraries/drivers/src/at32f435_437_adc.c **** }
 1373              		.loc 1 794 1 view .LVU355
 1374 000e 7047     		bx	lr
 1375              		.cfi_endproc
 1376              	.LFE163:
 1378              		.section	.text.adc_occe_each_conversion_enable,"ax",%progbits
 1379              		.align	1
 1380              		.global	adc_occe_each_conversion_enable
 1381              		.syntax unified
 1382              		.thumb
 1383              		.thumb_func
 1385              	adc_occe_each_conversion_enable:
 1386              	.LVL89:
 1387              	.LFB164:
 795:bsp/libraries/drivers/src/at32f435_437_adc.c **** 
 796:bsp/libraries/drivers/src/at32f435_437_adc.c **** /**
 797:bsp/libraries/drivers/src/at32f435_437_adc.c ****   * @brief  enable or disable each ordinary channel conversion set occe flag of the specified adc p
 798:bsp/libraries/drivers/src/at32f435_437_adc.c ****   * @param  adc_x: select the adc peripheral.
 799:bsp/libraries/drivers/src/at32f435_437_adc.c ****   *         this parameter can be one of the following values:
 800:bsp/libraries/drivers/src/at32f435_437_adc.c ****   *         - ADC1, ADC2, ADC3.
 801:bsp/libraries/drivers/src/at32f435_437_adc.c ****   * @param  new_state: new state of each ordinary channel conversion set occe flag.
 802:bsp/libraries/drivers/src/at32f435_437_adc.c ****   *         this parameter can be: TRUE or FALSE.
 803:bsp/libraries/drivers/src/at32f435_437_adc.c ****   * @retval none
 804:bsp/libraries/drivers/src/at32f435_437_adc.c ****   */
 805:bsp/libraries/drivers/src/at32f435_437_adc.c **** void adc_occe_each_conversion_enable(adc_type *adc_x, confirm_state new_state)
 806:bsp/libraries/drivers/src/at32f435_437_adc.c **** {
 1388              		.loc 1 806 1 is_stmt 1 view -0
 1389              		.cfi_startproc
 1390              		@ args = 0, pretend = 0, frame = 0
 1391              		@ frame_needed = 0, uses_anonymous_args = 0
 1392              		@ link register save eliminated.
 807:bsp/libraries/drivers/src/at32f435_437_adc.c ****   adc_x->ctrl2_bit.eocsfen = new_state;
 1393              		.loc 1 807 3 view .LVU357
 1394              		.loc 1 807 28 is_stmt 0 view .LVU358
 1395 0000 8368     		ldr	r3, [r0, #8]
 1396 0002 61F38A23 		bfi	r3, r1, #10, #1
 1397 0006 8360     		str	r3, [r0, #8]
 808:bsp/libraries/drivers/src/at32f435_437_adc.c **** }
 1398              		.loc 1 808 1 view .LVU359
 1399 0008 7047     		bx	lr
 1400              		.cfi_endproc
 1401              	.LFE164:
 1403              		.section	.text.adc_ordinary_software_trigger_enable,"ax",%progbits
 1404              		.align	1
ARM GAS  C:\Users\user\AppData\Local\Temp\ccXUtaRu.s 			page 40


 1405              		.global	adc_ordinary_software_trigger_enable
 1406              		.syntax unified
 1407              		.thumb
 1408              		.thumb_func
 1410              	adc_ordinary_software_trigger_enable:
 1411              	.LVL90:
 1412              	.LFB165:
 809:bsp/libraries/drivers/src/at32f435_437_adc.c **** 
 810:bsp/libraries/drivers/src/at32f435_437_adc.c **** /**
 811:bsp/libraries/drivers/src/at32f435_437_adc.c ****   * @brief  enable or disable ordinary software start conversion of the specified adc peripheral.
 812:bsp/libraries/drivers/src/at32f435_437_adc.c ****   * @param  adc_x: select the adc peripheral.
 813:bsp/libraries/drivers/src/at32f435_437_adc.c ****   *         this parameter can be one of the following values:
 814:bsp/libraries/drivers/src/at32f435_437_adc.c ****   *         - ADC1, ADC2, ADC3.
 815:bsp/libraries/drivers/src/at32f435_437_adc.c ****   * @param  new_state: new state of ordinary software start conversion.
 816:bsp/libraries/drivers/src/at32f435_437_adc.c ****   *         this parameter can be: TRUE or FALSE.
 817:bsp/libraries/drivers/src/at32f435_437_adc.c ****   * @retval none
 818:bsp/libraries/drivers/src/at32f435_437_adc.c ****   */
 819:bsp/libraries/drivers/src/at32f435_437_adc.c **** void adc_ordinary_software_trigger_enable(adc_type *adc_x, confirm_state new_state)
 820:bsp/libraries/drivers/src/at32f435_437_adc.c **** {
 1413              		.loc 1 820 1 is_stmt 1 view -0
 1414              		.cfi_startproc
 1415              		@ args = 0, pretend = 0, frame = 0
 1416              		@ frame_needed = 0, uses_anonymous_args = 0
 1417              		@ link register save eliminated.
 821:bsp/libraries/drivers/src/at32f435_437_adc.c ****   adc_x->ctrl2_bit.ocswtrg = new_state;
 1418              		.loc 1 821 3 view .LVU361
 1419              		.loc 1 821 28 is_stmt 0 view .LVU362
 1420 0000 8368     		ldr	r3, [r0, #8]
 1421 0002 61F39E73 		bfi	r3, r1, #30, #1
 1422 0006 8360     		str	r3, [r0, #8]
 822:bsp/libraries/drivers/src/at32f435_437_adc.c **** }
 1423              		.loc 1 822 1 view .LVU363
 1424 0008 7047     		bx	lr
 1425              		.cfi_endproc
 1426              	.LFE165:
 1428              		.section	.text.adc_ordinary_software_trigger_status_get,"ax",%progbits
 1429              		.align	1
 1430              		.global	adc_ordinary_software_trigger_status_get
 1431              		.syntax unified
 1432              		.thumb
 1433              		.thumb_func
 1435              	adc_ordinary_software_trigger_status_get:
 1436              	.LVL91:
 1437              	.LFB166:
 823:bsp/libraries/drivers/src/at32f435_437_adc.c **** 
 824:bsp/libraries/drivers/src/at32f435_437_adc.c **** /**
 825:bsp/libraries/drivers/src/at32f435_437_adc.c ****   * @brief  get ordinary software start conversion status of the specified adc peripheral.
 826:bsp/libraries/drivers/src/at32f435_437_adc.c ****   * @param  adc_x: select the adc peripheral.
 827:bsp/libraries/drivers/src/at32f435_437_adc.c ****   *         this parameter can be one of the following values:
 828:bsp/libraries/drivers/src/at32f435_437_adc.c ****   *         - ADC1, ADC2, ADC3.
 829:bsp/libraries/drivers/src/at32f435_437_adc.c ****   * @retval the new state of ordinary software start conversion status(SET or RESET).
 830:bsp/libraries/drivers/src/at32f435_437_adc.c ****   */
 831:bsp/libraries/drivers/src/at32f435_437_adc.c **** flag_status adc_ordinary_software_trigger_status_get(adc_type *adc_x)
 832:bsp/libraries/drivers/src/at32f435_437_adc.c **** {
 1438              		.loc 1 832 1 is_stmt 1 view -0
 1439              		.cfi_startproc
 1440              		@ args = 0, pretend = 0, frame = 0
ARM GAS  C:\Users\user\AppData\Local\Temp\ccXUtaRu.s 			page 41


 1441              		@ frame_needed = 0, uses_anonymous_args = 0
 1442              		@ link register save eliminated.
 833:bsp/libraries/drivers/src/at32f435_437_adc.c ****   if(adc_x->ctrl2_bit.ocswtrg)
 1443              		.loc 1 833 3 view .LVU365
 1444              		.loc 1 833 22 is_stmt 0 view .LVU366
 1445 0000 8368     		ldr	r3, [r0, #8]
 1446              		.loc 1 833 5 view .LVU367
 1447 0002 13F0804F 		tst	r3, #1073741824
 1448 0006 01D0     		beq	.L79
 834:bsp/libraries/drivers/src/at32f435_437_adc.c ****   {
 835:bsp/libraries/drivers/src/at32f435_437_adc.c ****     return SET;
 1449              		.loc 1 835 12 view .LVU368
 1450 0008 0120     		movs	r0, #1
 1451              	.LVL92:
 1452              		.loc 1 835 12 view .LVU369
 1453 000a 7047     		bx	lr
 1454              	.LVL93:
 1455              	.L79:
 836:bsp/libraries/drivers/src/at32f435_437_adc.c ****   }
 837:bsp/libraries/drivers/src/at32f435_437_adc.c ****   else
 838:bsp/libraries/drivers/src/at32f435_437_adc.c ****   {
 839:bsp/libraries/drivers/src/at32f435_437_adc.c ****     return RESET;
 1456              		.loc 1 839 12 view .LVU370
 1457 000c 0020     		movs	r0, #0
 1458              	.LVL94:
 840:bsp/libraries/drivers/src/at32f435_437_adc.c ****   }
 841:bsp/libraries/drivers/src/at32f435_437_adc.c **** }
 1459              		.loc 1 841 1 view .LVU371
 1460 000e 7047     		bx	lr
 1461              		.cfi_endproc
 1462              	.LFE166:
 1464              		.section	.text.adc_preempt_software_trigger_enable,"ax",%progbits
 1465              		.align	1
 1466              		.global	adc_preempt_software_trigger_enable
 1467              		.syntax unified
 1468              		.thumb
 1469              		.thumb_func
 1471              	adc_preempt_software_trigger_enable:
 1472              	.LVL95:
 1473              	.LFB167:
 842:bsp/libraries/drivers/src/at32f435_437_adc.c **** 
 843:bsp/libraries/drivers/src/at32f435_437_adc.c **** /**
 844:bsp/libraries/drivers/src/at32f435_437_adc.c ****   * @brief  enable or disable preempt software start conversion of the specified adc peripheral.
 845:bsp/libraries/drivers/src/at32f435_437_adc.c ****   * @param  adc_x: select the adc peripheral.
 846:bsp/libraries/drivers/src/at32f435_437_adc.c ****   *         this parameter can be one of the following values:
 847:bsp/libraries/drivers/src/at32f435_437_adc.c ****   *         - ADC1, ADC2, ADC3.
 848:bsp/libraries/drivers/src/at32f435_437_adc.c ****   * @param  new_state: new state of preempt software start conversion.
 849:bsp/libraries/drivers/src/at32f435_437_adc.c ****   *         this parameter can be: TRUE or FALSE.
 850:bsp/libraries/drivers/src/at32f435_437_adc.c ****   * @retval none
 851:bsp/libraries/drivers/src/at32f435_437_adc.c ****   */
 852:bsp/libraries/drivers/src/at32f435_437_adc.c **** void adc_preempt_software_trigger_enable(adc_type *adc_x, confirm_state new_state)
 853:bsp/libraries/drivers/src/at32f435_437_adc.c **** {
 1474              		.loc 1 853 1 is_stmt 1 view -0
 1475              		.cfi_startproc
 1476              		@ args = 0, pretend = 0, frame = 0
 1477              		@ frame_needed = 0, uses_anonymous_args = 0
 1478              		@ link register save eliminated.
ARM GAS  C:\Users\user\AppData\Local\Temp\ccXUtaRu.s 			page 42


 854:bsp/libraries/drivers/src/at32f435_437_adc.c ****   adc_x->ctrl2_bit.pcswtrg = new_state;
 1479              		.loc 1 854 3 view .LVU373
 1480              		.loc 1 854 28 is_stmt 0 view .LVU374
 1481 0000 8368     		ldr	r3, [r0, #8]
 1482 0002 61F39653 		bfi	r3, r1, #22, #1
 1483 0006 8360     		str	r3, [r0, #8]
 855:bsp/libraries/drivers/src/at32f435_437_adc.c ****   adc_x->ctrl2_bit.pcswtrg = FALSE;
 1484              		.loc 1 855 3 is_stmt 1 view .LVU375
 1485              		.loc 1 855 28 is_stmt 0 view .LVU376
 1486 0008 8368     		ldr	r3, [r0, #8]
 1487 000a 6FF39653 		bfc	r3, #22, #1
 1488 000e 8360     		str	r3, [r0, #8]
 856:bsp/libraries/drivers/src/at32f435_437_adc.c **** }
 1489              		.loc 1 856 1 view .LVU377
 1490 0010 7047     		bx	lr
 1491              		.cfi_endproc
 1492              	.LFE167:
 1494              		.section	.text.adc_preempt_software_trigger_status_get,"ax",%progbits
 1495              		.align	1
 1496              		.global	adc_preempt_software_trigger_status_get
 1497              		.syntax unified
 1498              		.thumb
 1499              		.thumb_func
 1501              	adc_preempt_software_trigger_status_get:
 1502              	.LVL96:
 1503              	.LFB168:
 857:bsp/libraries/drivers/src/at32f435_437_adc.c **** 
 858:bsp/libraries/drivers/src/at32f435_437_adc.c **** /**
 859:bsp/libraries/drivers/src/at32f435_437_adc.c ****   * @brief  get preempt software start conversion status of the specified adc peripheral.
 860:bsp/libraries/drivers/src/at32f435_437_adc.c ****   * @param  adc_x: select the adc peripheral.
 861:bsp/libraries/drivers/src/at32f435_437_adc.c ****   *         this parameter can be one of the following values:
 862:bsp/libraries/drivers/src/at32f435_437_adc.c ****   *         - ADC1, ADC2, ADC3.
 863:bsp/libraries/drivers/src/at32f435_437_adc.c ****   * @retval the new state of preempt software start conversion status(SET or RESET).
 864:bsp/libraries/drivers/src/at32f435_437_adc.c ****   */
 865:bsp/libraries/drivers/src/at32f435_437_adc.c **** flag_status adc_preempt_software_trigger_status_get(adc_type *adc_x)
 866:bsp/libraries/drivers/src/at32f435_437_adc.c **** {
 1504              		.loc 1 866 1 is_stmt 1 view -0
 1505              		.cfi_startproc
 1506              		@ args = 0, pretend = 0, frame = 0
 1507              		@ frame_needed = 0, uses_anonymous_args = 0
 1508              		@ link register save eliminated.
 867:bsp/libraries/drivers/src/at32f435_437_adc.c ****   if(adc_x->ctrl2_bit.pcswtrg)
 1509              		.loc 1 867 3 view .LVU379
 1510              		.loc 1 867 22 is_stmt 0 view .LVU380
 1511 0000 8368     		ldr	r3, [r0, #8]
 1512              		.loc 1 867 5 view .LVU381
 1513 0002 13F4800F 		tst	r3, #4194304
 1514 0006 01D0     		beq	.L83
 868:bsp/libraries/drivers/src/at32f435_437_adc.c ****   {
 869:bsp/libraries/drivers/src/at32f435_437_adc.c ****     return SET;
 1515              		.loc 1 869 12 view .LVU382
 1516 0008 0120     		movs	r0, #1
 1517              	.LVL97:
 1518              		.loc 1 869 12 view .LVU383
 1519 000a 7047     		bx	lr
 1520              	.LVL98:
 1521              	.L83:
ARM GAS  C:\Users\user\AppData\Local\Temp\ccXUtaRu.s 			page 43


 870:bsp/libraries/drivers/src/at32f435_437_adc.c ****   }
 871:bsp/libraries/drivers/src/at32f435_437_adc.c ****   else
 872:bsp/libraries/drivers/src/at32f435_437_adc.c ****   {
 873:bsp/libraries/drivers/src/at32f435_437_adc.c ****     return RESET;
 1522              		.loc 1 873 12 view .LVU384
 1523 000c 0020     		movs	r0, #0
 1524              	.LVL99:
 874:bsp/libraries/drivers/src/at32f435_437_adc.c ****   }
 875:bsp/libraries/drivers/src/at32f435_437_adc.c **** }
 1525              		.loc 1 875 1 view .LVU385
 1526 000e 7047     		bx	lr
 1527              		.cfi_endproc
 1528              	.LFE168:
 1530              		.section	.text.adc_ordinary_conversion_data_get,"ax",%progbits
 1531              		.align	1
 1532              		.global	adc_ordinary_conversion_data_get
 1533              		.syntax unified
 1534              		.thumb
 1535              		.thumb_func
 1537              	adc_ordinary_conversion_data_get:
 1538              	.LVL100:
 1539              	.LFB169:
 876:bsp/libraries/drivers/src/at32f435_437_adc.c **** 
 877:bsp/libraries/drivers/src/at32f435_437_adc.c **** /**
 878:bsp/libraries/drivers/src/at32f435_437_adc.c ****   * @brief  return the last conversion data for ordinary channel of the specified adc peripheral.
 879:bsp/libraries/drivers/src/at32f435_437_adc.c ****   * @param  adc_x: select the adc peripheral.
 880:bsp/libraries/drivers/src/at32f435_437_adc.c ****   *         this parameter can be one of the following values:
 881:bsp/libraries/drivers/src/at32f435_437_adc.c ****   *         - ADC1, ADC2, ADC3.
 882:bsp/libraries/drivers/src/at32f435_437_adc.c ****   * @retval the last conversion data for ordinary channel.
 883:bsp/libraries/drivers/src/at32f435_437_adc.c ****   */
 884:bsp/libraries/drivers/src/at32f435_437_adc.c **** uint16_t adc_ordinary_conversion_data_get(adc_type *adc_x)
 885:bsp/libraries/drivers/src/at32f435_437_adc.c **** {
 1540              		.loc 1 885 1 is_stmt 1 view -0
 1541              		.cfi_startproc
 1542              		@ args = 0, pretend = 0, frame = 0
 1543              		@ frame_needed = 0, uses_anonymous_args = 0
 1544              		@ link register save eliminated.
 886:bsp/libraries/drivers/src/at32f435_437_adc.c ****   return (uint16_t)(adc_x->odt_bit.odt);
 1545              		.loc 1 886 3 view .LVU387
 1546              		.loc 1 886 10 is_stmt 0 view .LVU388
 1547 0000 C06C     		ldr	r0, [r0, #76]
 1548              	.LVL101:
 887:bsp/libraries/drivers/src/at32f435_437_adc.c **** }
 1549              		.loc 1 887 1 view .LVU389
 1550 0002 80B2     		uxth	r0, r0
 1551 0004 7047     		bx	lr
 1552              		.cfi_endproc
 1553              	.LFE169:
 1555              		.section	.text.adc_combine_ordinary_conversion_data_get,"ax",%progbits
 1556              		.align	1
 1557              		.global	adc_combine_ordinary_conversion_data_get
 1558              		.syntax unified
 1559              		.thumb
 1560              		.thumb_func
 1562              	adc_combine_ordinary_conversion_data_get:
 1563              	.LFB170:
 888:bsp/libraries/drivers/src/at32f435_437_adc.c **** 
ARM GAS  C:\Users\user\AppData\Local\Temp\ccXUtaRu.s 			page 44


 889:bsp/libraries/drivers/src/at32f435_437_adc.c **** /**
 890:bsp/libraries/drivers/src/at32f435_437_adc.c ****   * @brief  return the last ordinary conversion data of combine adc.
 891:bsp/libraries/drivers/src/at32f435_437_adc.c ****   * @retval the last conversion data for ordinary channel.
 892:bsp/libraries/drivers/src/at32f435_437_adc.c ****   */
 893:bsp/libraries/drivers/src/at32f435_437_adc.c **** uint32_t adc_combine_ordinary_conversion_data_get(void)
 894:bsp/libraries/drivers/src/at32f435_437_adc.c **** {
 1564              		.loc 1 894 1 is_stmt 1 view -0
 1565              		.cfi_startproc
 1566              		@ args = 0, pretend = 0, frame = 0
 1567              		@ frame_needed = 0, uses_anonymous_args = 0
 1568              		@ link register save eliminated.
 895:bsp/libraries/drivers/src/at32f435_437_adc.c ****   return (uint32_t)(ADCCOM->codt);
 1569              		.loc 1 895 3 view .LVU391
 1570              		.loc 1 895 10 is_stmt 0 view .LVU392
 1571 0000 014B     		ldr	r3, .L86
 1572 0002 9868     		ldr	r0, [r3, #8]
 896:bsp/libraries/drivers/src/at32f435_437_adc.c **** }
 1573              		.loc 1 896 1 view .LVU393
 1574 0004 7047     		bx	lr
 1575              	.L87:
 1576 0006 00BF     		.align	2
 1577              	.L86:
 1578 0008 00230140 		.word	1073816320
 1579              		.cfi_endproc
 1580              	.LFE170:
 1582              		.section	.text.adc_preempt_conversion_data_get,"ax",%progbits
 1583              		.align	1
 1584              		.global	adc_preempt_conversion_data_get
 1585              		.syntax unified
 1586              		.thumb
 1587              		.thumb_func
 1589              	adc_preempt_conversion_data_get:
 1590              	.LVL102:
 1591              	.LFB171:
 897:bsp/libraries/drivers/src/at32f435_437_adc.c **** 
 898:bsp/libraries/drivers/src/at32f435_437_adc.c **** /**
 899:bsp/libraries/drivers/src/at32f435_437_adc.c ****   * @brief  return the conversion data for selection preempt channel of the specified adc periphera
 900:bsp/libraries/drivers/src/at32f435_437_adc.c ****   * @param  adc_x: select the adc peripheral.
 901:bsp/libraries/drivers/src/at32f435_437_adc.c ****   *         this parameter can be one of the following values:
 902:bsp/libraries/drivers/src/at32f435_437_adc.c ****   *         - ADC1, ADC2, ADC3.
 903:bsp/libraries/drivers/src/at32f435_437_adc.c ****   * @param  adc_preempt_channel: select the preempt channel.
 904:bsp/libraries/drivers/src/at32f435_437_adc.c ****   *         this parameter can be one of the following values:
 905:bsp/libraries/drivers/src/at32f435_437_adc.c ****   *         - ADC_PREEMPT_CHANNEL_1
 906:bsp/libraries/drivers/src/at32f435_437_adc.c ****   *         - ADC_PREEMPT_CHANNEL_2
 907:bsp/libraries/drivers/src/at32f435_437_adc.c ****   *         - ADC_PREEMPT_CHANNEL_3
 908:bsp/libraries/drivers/src/at32f435_437_adc.c ****   *         - ADC_PREEMPT_CHANNEL_4
 909:bsp/libraries/drivers/src/at32f435_437_adc.c ****   * @retval the conversion data for selection preempt channel.
 910:bsp/libraries/drivers/src/at32f435_437_adc.c ****   */
 911:bsp/libraries/drivers/src/at32f435_437_adc.c **** uint16_t adc_preempt_conversion_data_get(adc_type *adc_x, adc_preempt_channel_type adc_preempt_chan
 912:bsp/libraries/drivers/src/at32f435_437_adc.c **** {
 1592              		.loc 1 912 1 is_stmt 1 view -0
 1593              		.cfi_startproc
 1594              		@ args = 0, pretend = 0, frame = 0
 1595              		@ frame_needed = 0, uses_anonymous_args = 0
 1596              		@ link register save eliminated.
 913:bsp/libraries/drivers/src/at32f435_437_adc.c ****   uint16_t preempt_conv_data_index = 0;
 1597              		.loc 1 913 3 view .LVU395
ARM GAS  C:\Users\user\AppData\Local\Temp\ccXUtaRu.s 			page 45


 914:bsp/libraries/drivers/src/at32f435_437_adc.c ****   switch(adc_preempt_channel)
 1598              		.loc 1 914 3 view .LVU396
 1599 0000 0329     		cmp	r1, #3
 1600 0002 0FD8     		bhi	.L95
 1601 0004 DFE801F0 		tbb	[pc, r1]
 1602              	.L91:
 1603 0008 02       		.byte	(.L94-.L91)/2
 1604 0009 05       		.byte	(.L93-.L91)/2
 1605 000a 08       		.byte	(.L92-.L91)/2
 1606 000b 0B       		.byte	(.L90-.L91)/2
 1607              		.p2align 1
 1608              	.L94:
 915:bsp/libraries/drivers/src/at32f435_437_adc.c ****   {
 916:bsp/libraries/drivers/src/at32f435_437_adc.c ****     case ADC_PREEMPT_CHANNEL_1:
 917:bsp/libraries/drivers/src/at32f435_437_adc.c ****       preempt_conv_data_index = (uint16_t)(adc_x->pdt1_bit.pdt1);
 1609              		.loc 1 917 7 view .LVU397
 1610              		.loc 1 917 31 is_stmt 0 view .LVU398
 1611 000c C06B     		ldr	r0, [r0, #60]
 1612              	.LVL103:
 1613              		.loc 1 917 31 view .LVU399
 1614 000e 80B2     		uxth	r0, r0
 1615              	.LVL104:
 918:bsp/libraries/drivers/src/at32f435_437_adc.c ****       break;
 1616              		.loc 1 918 7 is_stmt 1 view .LVU400
 1617 0010 7047     		bx	lr
 1618              	.LVL105:
 1619              	.L93:
 919:bsp/libraries/drivers/src/at32f435_437_adc.c ****     case ADC_PREEMPT_CHANNEL_2:
 920:bsp/libraries/drivers/src/at32f435_437_adc.c ****       preempt_conv_data_index = (uint16_t)(adc_x->pdt2_bit.pdt2);
 1620              		.loc 1 920 7 view .LVU401
 1621              		.loc 1 920 31 is_stmt 0 view .LVU402
 1622 0012 006C     		ldr	r0, [r0, #64]
 1623              	.LVL106:
 1624              		.loc 1 920 31 view .LVU403
 1625 0014 80B2     		uxth	r0, r0
 1626              	.LVL107:
 921:bsp/libraries/drivers/src/at32f435_437_adc.c ****       break;
 1627              		.loc 1 921 7 is_stmt 1 view .LVU404
 1628 0016 7047     		bx	lr
 1629              	.LVL108:
 1630              	.L92:
 922:bsp/libraries/drivers/src/at32f435_437_adc.c ****     case ADC_PREEMPT_CHANNEL_3:
 923:bsp/libraries/drivers/src/at32f435_437_adc.c ****       preempt_conv_data_index = (uint16_t)(adc_x->pdt3_bit.pdt3);
 1631              		.loc 1 923 7 view .LVU405
 1632              		.loc 1 923 31 is_stmt 0 view .LVU406
 1633 0018 406C     		ldr	r0, [r0, #68]
 1634              	.LVL109:
 1635              		.loc 1 923 31 view .LVU407
 1636 001a 80B2     		uxth	r0, r0
 1637              	.LVL110:
 924:bsp/libraries/drivers/src/at32f435_437_adc.c ****       break;
 1638              		.loc 1 924 7 is_stmt 1 view .LVU408
 1639 001c 7047     		bx	lr
 1640              	.LVL111:
 1641              	.L90:
 925:bsp/libraries/drivers/src/at32f435_437_adc.c ****     case ADC_PREEMPT_CHANNEL_4:
 926:bsp/libraries/drivers/src/at32f435_437_adc.c ****       preempt_conv_data_index = (uint16_t)(adc_x->pdt4_bit.pdt4);
ARM GAS  C:\Users\user\AppData\Local\Temp\ccXUtaRu.s 			page 46


 1642              		.loc 1 926 7 view .LVU409
 1643              		.loc 1 926 31 is_stmt 0 view .LVU410
 1644 001e 806C     		ldr	r0, [r0, #72]
 1645              	.LVL112:
 1646              		.loc 1 926 31 view .LVU411
 1647 0020 80B2     		uxth	r0, r0
 1648              	.LVL113:
 927:bsp/libraries/drivers/src/at32f435_437_adc.c ****       break;
 1649              		.loc 1 927 7 is_stmt 1 view .LVU412
 1650 0022 7047     		bx	lr
 1651              	.LVL114:
 1652              	.L95:
 914:bsp/libraries/drivers/src/at32f435_437_adc.c ****   {
 1653              		.loc 1 914 3 is_stmt 0 view .LVU413
 1654 0024 0020     		movs	r0, #0
 1655              	.LVL115:
 928:bsp/libraries/drivers/src/at32f435_437_adc.c ****     default:
 929:bsp/libraries/drivers/src/at32f435_437_adc.c ****       break;
 930:bsp/libraries/drivers/src/at32f435_437_adc.c ****   }
 931:bsp/libraries/drivers/src/at32f435_437_adc.c ****   return preempt_conv_data_index;
 1656              		.loc 1 931 3 is_stmt 1 view .LVU414
 932:bsp/libraries/drivers/src/at32f435_437_adc.c **** }
 1657              		.loc 1 932 1 is_stmt 0 view .LVU415
 1658 0026 7047     		bx	lr
 1659              		.cfi_endproc
 1660              	.LFE171:
 1662              		.section	.text.adc_flag_get,"ax",%progbits
 1663              		.align	1
 1664              		.global	adc_flag_get
 1665              		.syntax unified
 1666              		.thumb
 1667              		.thumb_func
 1669              	adc_flag_get:
 1670              	.LVL116:
 1671              	.LFB172:
 933:bsp/libraries/drivers/src/at32f435_437_adc.c **** 
 934:bsp/libraries/drivers/src/at32f435_437_adc.c **** /**
 935:bsp/libraries/drivers/src/at32f435_437_adc.c ****   * @brief  get flag of the specified adc peripheral.
 936:bsp/libraries/drivers/src/at32f435_437_adc.c ****   * @param  adc_x: select the adc peripheral.
 937:bsp/libraries/drivers/src/at32f435_437_adc.c ****   *         this parameter can be one of the following values:
 938:bsp/libraries/drivers/src/at32f435_437_adc.c ****   *         - ADC1, ADC2, ADC3.
 939:bsp/libraries/drivers/src/at32f435_437_adc.c ****   * @param  adc_flag: select the adc flag.
 940:bsp/libraries/drivers/src/at32f435_437_adc.c ****   *         this parameter can be one of the following values:
 941:bsp/libraries/drivers/src/at32f435_437_adc.c ****   *         - ADC_VMOR_FLAG
 942:bsp/libraries/drivers/src/at32f435_437_adc.c ****   *         - ADC_OCCE_FLAG
 943:bsp/libraries/drivers/src/at32f435_437_adc.c ****   *         - ADC_PCCE_FLAG
 944:bsp/libraries/drivers/src/at32f435_437_adc.c ****   *         - ADC_PCCS_FLAG(no interrupt associated)
 945:bsp/libraries/drivers/src/at32f435_437_adc.c ****   *         - ADC_OCCS_FLAG(no interrupt associated)
 946:bsp/libraries/drivers/src/at32f435_437_adc.c ****   *         - ADC_OCCO_FLAG
 947:bsp/libraries/drivers/src/at32f435_437_adc.c ****   *         - ADC_RDY_FLAG(no interrupt associated)
 948:bsp/libraries/drivers/src/at32f435_437_adc.c ****   * @retval the new state of adc flag status(SET or RESET).
 949:bsp/libraries/drivers/src/at32f435_437_adc.c ****   */
 950:bsp/libraries/drivers/src/at32f435_437_adc.c **** flag_status adc_flag_get(adc_type *adc_x, uint8_t adc_flag)
 951:bsp/libraries/drivers/src/at32f435_437_adc.c **** {
 1672              		.loc 1 951 1 is_stmt 1 view -0
 1673              		.cfi_startproc
 1674              		@ args = 0, pretend = 0, frame = 0
ARM GAS  C:\Users\user\AppData\Local\Temp\ccXUtaRu.s 			page 47


 1675              		@ frame_needed = 0, uses_anonymous_args = 0
 1676              		@ link register save eliminated.
 952:bsp/libraries/drivers/src/at32f435_437_adc.c ****   flag_status status = RESET;
 1677              		.loc 1 952 3 view .LVU417
 953:bsp/libraries/drivers/src/at32f435_437_adc.c **** 
 954:bsp/libraries/drivers/src/at32f435_437_adc.c ****   if((adc_x->sts & adc_flag) == RESET)
 1678              		.loc 1 954 3 view .LVU418
 1679              		.loc 1 954 12 is_stmt 0 view .LVU419
 1680 0000 0368     		ldr	r3, [r0]
 1681              		.loc 1 954 5 view .LVU420
 1682 0002 1942     		tst	r1, r3
 1683 0004 01D1     		bne	.L98
 955:bsp/libraries/drivers/src/at32f435_437_adc.c ****   {
 956:bsp/libraries/drivers/src/at32f435_437_adc.c ****     status = RESET;
 1684              		.loc 1 956 12 view .LVU421
 1685 0006 0020     		movs	r0, #0
 1686              	.LVL117:
 1687              		.loc 1 956 12 view .LVU422
 1688 0008 7047     		bx	lr
 1689              	.LVL118:
 1690              	.L98:
 957:bsp/libraries/drivers/src/at32f435_437_adc.c ****   }
 958:bsp/libraries/drivers/src/at32f435_437_adc.c ****   else
 959:bsp/libraries/drivers/src/at32f435_437_adc.c ****   {
 960:bsp/libraries/drivers/src/at32f435_437_adc.c ****     status = SET;
 1691              		.loc 1 960 12 view .LVU423
 1692 000a 0120     		movs	r0, #1
 1693              	.LVL119:
 961:bsp/libraries/drivers/src/at32f435_437_adc.c ****   }
 962:bsp/libraries/drivers/src/at32f435_437_adc.c ****   return status;
 1694              		.loc 1 962 3 is_stmt 1 view .LVU424
 963:bsp/libraries/drivers/src/at32f435_437_adc.c **** }
 1695              		.loc 1 963 1 is_stmt 0 view .LVU425
 1696 000c 7047     		bx	lr
 1697              		.cfi_endproc
 1698              	.LFE172:
 1700              		.section	.text.adc_interrupt_flag_get,"ax",%progbits
 1701              		.align	1
 1702              		.global	adc_interrupt_flag_get
 1703              		.syntax unified
 1704              		.thumb
 1705              		.thumb_func
 1707              	adc_interrupt_flag_get:
 1708              	.LVL120:
 1709              	.LFB173:
 964:bsp/libraries/drivers/src/at32f435_437_adc.c **** 
 965:bsp/libraries/drivers/src/at32f435_437_adc.c **** /**
 966:bsp/libraries/drivers/src/at32f435_437_adc.c ****   * @brief  get interrupt flag of the specified adc peripheral.
 967:bsp/libraries/drivers/src/at32f435_437_adc.c ****   * @param  adc_x: select the adc peripheral.
 968:bsp/libraries/drivers/src/at32f435_437_adc.c ****   *         this parameter can be one of the following values:
 969:bsp/libraries/drivers/src/at32f435_437_adc.c ****   *         - ADC1, ADC2, ADC3.
 970:bsp/libraries/drivers/src/at32f435_437_adc.c ****   * @param  adc_flag: select the adc flag.
 971:bsp/libraries/drivers/src/at32f435_437_adc.c ****   *         this parameter can be one of the following values:
 972:bsp/libraries/drivers/src/at32f435_437_adc.c ****   *         - ADC_VMOR_FLAG
 973:bsp/libraries/drivers/src/at32f435_437_adc.c ****   *         - ADC_OCCE_FLAG
 974:bsp/libraries/drivers/src/at32f435_437_adc.c ****   *         - ADC_PCCE_FLAG
 975:bsp/libraries/drivers/src/at32f435_437_adc.c ****   *         - ADC_OCCO_FLAG
ARM GAS  C:\Users\user\AppData\Local\Temp\ccXUtaRu.s 			page 48


 976:bsp/libraries/drivers/src/at32f435_437_adc.c ****   * @retval the new state of adc flag status(SET or RESET).
 977:bsp/libraries/drivers/src/at32f435_437_adc.c ****   */
 978:bsp/libraries/drivers/src/at32f435_437_adc.c **** flag_status adc_interrupt_flag_get(adc_type *adc_x, uint8_t adc_flag)
 979:bsp/libraries/drivers/src/at32f435_437_adc.c **** {
 1710              		.loc 1 979 1 is_stmt 1 view -0
 1711              		.cfi_startproc
 1712              		@ args = 0, pretend = 0, frame = 0
 1713              		@ frame_needed = 0, uses_anonymous_args = 0
 1714              		@ link register save eliminated.
 980:bsp/libraries/drivers/src/at32f435_437_adc.c ****   flag_status status = RESET;
 1715              		.loc 1 980 3 view .LVU427
 981:bsp/libraries/drivers/src/at32f435_437_adc.c ****   switch(adc_flag)
 1716              		.loc 1 981 3 view .LVU428
 1717 0000 4B1E     		subs	r3, r1, #1
 1718 0002 1F2B     		cmp	r3, #31
 1719 0004 39D8     		bhi	.L106
 1720 0006 DFE803F0 		tbb	[pc, r3]
 1721              	.L102:
 1722 000a 10       		.byte	(.L105-.L102)/2
 1723 000b 1A       		.byte	(.L104-.L102)/2
 1724 000c 38       		.byte	(.L106-.L102)/2
 1725 000d 24       		.byte	(.L103-.L102)/2
 1726 000e 38       		.byte	(.L106-.L102)/2
 1727 000f 38       		.byte	(.L106-.L102)/2
 1728 0010 38       		.byte	(.L106-.L102)/2
 1729 0011 38       		.byte	(.L106-.L102)/2
 1730 0012 38       		.byte	(.L106-.L102)/2
 1731 0013 38       		.byte	(.L106-.L102)/2
 1732 0014 38       		.byte	(.L106-.L102)/2
 1733 0015 38       		.byte	(.L106-.L102)/2
 1734 0016 38       		.byte	(.L106-.L102)/2
 1735 0017 38       		.byte	(.L106-.L102)/2
 1736 0018 38       		.byte	(.L106-.L102)/2
 1737 0019 38       		.byte	(.L106-.L102)/2
 1738 001a 38       		.byte	(.L106-.L102)/2
 1739 001b 38       		.byte	(.L106-.L102)/2
 1740 001c 38       		.byte	(.L106-.L102)/2
 1741 001d 38       		.byte	(.L106-.L102)/2
 1742 001e 38       		.byte	(.L106-.L102)/2
 1743 001f 38       		.byte	(.L106-.L102)/2
 1744 0020 38       		.byte	(.L106-.L102)/2
 1745 0021 38       		.byte	(.L106-.L102)/2
 1746 0022 38       		.byte	(.L106-.L102)/2
 1747 0023 38       		.byte	(.L106-.L102)/2
 1748 0024 38       		.byte	(.L106-.L102)/2
 1749 0025 38       		.byte	(.L106-.L102)/2
 1750 0026 38       		.byte	(.L106-.L102)/2
 1751 0027 38       		.byte	(.L106-.L102)/2
 1752 0028 38       		.byte	(.L106-.L102)/2
 1753 0029 2E       		.byte	(.L101-.L102)/2
 1754              		.p2align 1
 1755              	.L105:
 982:bsp/libraries/drivers/src/at32f435_437_adc.c ****   {
 983:bsp/libraries/drivers/src/at32f435_437_adc.c ****     case ADC_VMOR_FLAG:
 984:bsp/libraries/drivers/src/at32f435_437_adc.c ****       if(adc_x->sts_bit.vmor && adc_x->ctrl1_bit.vmorien)
 1756              		.loc 1 984 7 view .LVU429
 1757              		.loc 1 984 24 is_stmt 0 view .LVU430
ARM GAS  C:\Users\user\AppData\Local\Temp\ccXUtaRu.s 			page 49


 1758 002a 0368     		ldr	r3, [r0]
 1759              		.loc 1 984 9 view .LVU431
 1760 002c 13F0010F 		tst	r3, #1
 1761 0030 25D0     		beq	.L107
 1762              		.loc 1 984 49 discriminator 1 view .LVU432
 1763 0032 4368     		ldr	r3, [r0, #4]
 1764              		.loc 1 984 30 discriminator 1 view .LVU433
 1765 0034 13F0400F 		tst	r3, #64
 1766 0038 23D1     		bne	.L108
 980:bsp/libraries/drivers/src/at32f435_437_adc.c ****   switch(adc_flag)
 1767              		.loc 1 980 15 view .LVU434
 1768 003a 0020     		movs	r0, #0
 1769              	.LVL121:
 980:bsp/libraries/drivers/src/at32f435_437_adc.c ****   switch(adc_flag)
 1770              		.loc 1 980 15 view .LVU435
 1771 003c 7047     		bx	lr
 1772              	.LVL122:
 1773              	.L104:
 985:bsp/libraries/drivers/src/at32f435_437_adc.c ****       {
 986:bsp/libraries/drivers/src/at32f435_437_adc.c ****         status = SET;
 987:bsp/libraries/drivers/src/at32f435_437_adc.c ****       }
 988:bsp/libraries/drivers/src/at32f435_437_adc.c ****       break;
 989:bsp/libraries/drivers/src/at32f435_437_adc.c ****     case ADC_OCCE_FLAG:
 990:bsp/libraries/drivers/src/at32f435_437_adc.c ****       if(adc_x->sts_bit.occe && adc_x->ctrl1_bit.occeien)
 1774              		.loc 1 990 7 is_stmt 1 view .LVU436
 1775              		.loc 1 990 24 is_stmt 0 view .LVU437
 1776 003e 0368     		ldr	r3, [r0]
 1777              		.loc 1 990 9 view .LVU438
 1778 0040 13F0020F 		tst	r3, #2
 1779 0044 1FD0     		beq	.L109
 1780              		.loc 1 990 49 discriminator 1 view .LVU439
 1781 0046 4368     		ldr	r3, [r0, #4]
 1782              		.loc 1 990 30 discriminator 1 view .LVU440
 1783 0048 13F0200F 		tst	r3, #32
 1784 004c 1DD1     		bne	.L110
 980:bsp/libraries/drivers/src/at32f435_437_adc.c ****   switch(adc_flag)
 1785              		.loc 1 980 15 view .LVU441
 1786 004e 0020     		movs	r0, #0
 1787              	.LVL123:
 980:bsp/libraries/drivers/src/at32f435_437_adc.c ****   switch(adc_flag)
 1788              		.loc 1 980 15 view .LVU442
 1789 0050 7047     		bx	lr
 1790              	.LVL124:
 1791              	.L103:
 991:bsp/libraries/drivers/src/at32f435_437_adc.c ****       {
 992:bsp/libraries/drivers/src/at32f435_437_adc.c ****         status = SET;
 993:bsp/libraries/drivers/src/at32f435_437_adc.c ****       }
 994:bsp/libraries/drivers/src/at32f435_437_adc.c ****       break;
 995:bsp/libraries/drivers/src/at32f435_437_adc.c ****     case ADC_PCCE_FLAG:
 996:bsp/libraries/drivers/src/at32f435_437_adc.c ****       if(adc_x->sts_bit.pcce && adc_x->ctrl1_bit.pcceien)
 1792              		.loc 1 996 7 is_stmt 1 view .LVU443
 1793              		.loc 1 996 24 is_stmt 0 view .LVU444
 1794 0052 0368     		ldr	r3, [r0]
 1795              		.loc 1 996 9 view .LVU445
 1796 0054 13F0040F 		tst	r3, #4
 1797 0058 19D0     		beq	.L111
 1798              		.loc 1 996 49 discriminator 1 view .LVU446
ARM GAS  C:\Users\user\AppData\Local\Temp\ccXUtaRu.s 			page 50


 1799 005a 4368     		ldr	r3, [r0, #4]
 1800              		.loc 1 996 30 discriminator 1 view .LVU447
 1801 005c 13F0800F 		tst	r3, #128
 1802 0060 17D1     		bne	.L112
 980:bsp/libraries/drivers/src/at32f435_437_adc.c ****   switch(adc_flag)
 1803              		.loc 1 980 15 view .LVU448
 1804 0062 0020     		movs	r0, #0
 1805              	.LVL125:
 980:bsp/libraries/drivers/src/at32f435_437_adc.c ****   switch(adc_flag)
 1806              		.loc 1 980 15 view .LVU449
 1807 0064 7047     		bx	lr
 1808              	.LVL126:
 1809              	.L101:
 997:bsp/libraries/drivers/src/at32f435_437_adc.c ****       {
 998:bsp/libraries/drivers/src/at32f435_437_adc.c ****         status = SET;
 999:bsp/libraries/drivers/src/at32f435_437_adc.c ****       }
1000:bsp/libraries/drivers/src/at32f435_437_adc.c ****       break;
1001:bsp/libraries/drivers/src/at32f435_437_adc.c ****     case ADC_OCCO_FLAG:
1002:bsp/libraries/drivers/src/at32f435_437_adc.c ****       if(adc_x->sts_bit.occo && adc_x->ctrl1_bit.occoien)
 1810              		.loc 1 1002 7 is_stmt 1 view .LVU450
 1811              		.loc 1 1002 24 is_stmt 0 view .LVU451
 1812 0066 0368     		ldr	r3, [r0]
 1813              		.loc 1 1002 9 view .LVU452
 1814 0068 13F0200F 		tst	r3, #32
 1815 006c 13D0     		beq	.L113
 1816              		.loc 1 1002 49 discriminator 1 view .LVU453
 1817 006e 4368     		ldr	r3, [r0, #4]
 1818              		.loc 1 1002 30 discriminator 1 view .LVU454
 1819 0070 13F0806F 		tst	r3, #67108864
 1820 0074 11D1     		bne	.L114
 980:bsp/libraries/drivers/src/at32f435_437_adc.c ****   switch(adc_flag)
 1821              		.loc 1 980 15 view .LVU455
 1822 0076 0020     		movs	r0, #0
 1823              	.LVL127:
 980:bsp/libraries/drivers/src/at32f435_437_adc.c ****   switch(adc_flag)
 1824              		.loc 1 980 15 view .LVU456
 1825 0078 7047     		bx	lr
 1826              	.LVL128:
 1827              	.L106:
 981:bsp/libraries/drivers/src/at32f435_437_adc.c ****   {
 1828              		.loc 1 981 3 view .LVU457
 1829 007a 0020     		movs	r0, #0
 1830              	.LVL129:
 981:bsp/libraries/drivers/src/at32f435_437_adc.c ****   {
 1831              		.loc 1 981 3 view .LVU458
 1832 007c 7047     		bx	lr
 1833              	.LVL130:
 1834              	.L107:
 980:bsp/libraries/drivers/src/at32f435_437_adc.c ****   switch(adc_flag)
 1835              		.loc 1 980 15 view .LVU459
 1836 007e 0020     		movs	r0, #0
 1837              	.LVL131:
 980:bsp/libraries/drivers/src/at32f435_437_adc.c ****   switch(adc_flag)
 1838              		.loc 1 980 15 view .LVU460
 1839 0080 7047     		bx	lr
 1840              	.LVL132:
 1841              	.L108:
ARM GAS  C:\Users\user\AppData\Local\Temp\ccXUtaRu.s 			page 51


 986:bsp/libraries/drivers/src/at32f435_437_adc.c ****       }
 1842              		.loc 1 986 16 view .LVU461
 1843 0082 0846     		mov	r0, r1
 1844              	.LVL133:
 986:bsp/libraries/drivers/src/at32f435_437_adc.c ****       }
 1845              		.loc 1 986 16 view .LVU462
 1846 0084 7047     		bx	lr
 1847              	.LVL134:
 1848              	.L109:
 980:bsp/libraries/drivers/src/at32f435_437_adc.c ****   switch(adc_flag)
 1849              		.loc 1 980 15 view .LVU463
 1850 0086 0020     		movs	r0, #0
 1851              	.LVL135:
 980:bsp/libraries/drivers/src/at32f435_437_adc.c ****   switch(adc_flag)
 1852              		.loc 1 980 15 view .LVU464
 1853 0088 7047     		bx	lr
 1854              	.LVL136:
 1855              	.L110:
 992:bsp/libraries/drivers/src/at32f435_437_adc.c ****       }
 1856              		.loc 1 992 16 view .LVU465
 1857 008a 0120     		movs	r0, #1
 1858              	.LVL137:
 992:bsp/libraries/drivers/src/at32f435_437_adc.c ****       }
 1859              		.loc 1 992 16 view .LVU466
 1860 008c 7047     		bx	lr
 1861              	.LVL138:
 1862              	.L111:
 980:bsp/libraries/drivers/src/at32f435_437_adc.c ****   switch(adc_flag)
 1863              		.loc 1 980 15 view .LVU467
 1864 008e 0020     		movs	r0, #0
 1865              	.LVL139:
 980:bsp/libraries/drivers/src/at32f435_437_adc.c ****   switch(adc_flag)
 1866              		.loc 1 980 15 view .LVU468
 1867 0090 7047     		bx	lr
 1868              	.LVL140:
 1869              	.L112:
 998:bsp/libraries/drivers/src/at32f435_437_adc.c ****       }
 1870              		.loc 1 998 16 view .LVU469
 1871 0092 0120     		movs	r0, #1
 1872              	.LVL141:
 998:bsp/libraries/drivers/src/at32f435_437_adc.c ****       }
 1873              		.loc 1 998 16 view .LVU470
 1874 0094 7047     		bx	lr
 1875              	.LVL142:
 1876              	.L113:
 980:bsp/libraries/drivers/src/at32f435_437_adc.c ****   switch(adc_flag)
 1877              		.loc 1 980 15 view .LVU471
 1878 0096 0020     		movs	r0, #0
 1879              	.LVL143:
 980:bsp/libraries/drivers/src/at32f435_437_adc.c ****   switch(adc_flag)
 1880              		.loc 1 980 15 view .LVU472
 1881 0098 7047     		bx	lr
 1882              	.LVL144:
 1883              	.L114:
1003:bsp/libraries/drivers/src/at32f435_437_adc.c ****       {
1004:bsp/libraries/drivers/src/at32f435_437_adc.c ****         status = SET;
 1884              		.loc 1 1004 16 view .LVU473
ARM GAS  C:\Users\user\AppData\Local\Temp\ccXUtaRu.s 			page 52


 1885 009a 0120     		movs	r0, #1
 1886              	.LVL145:
1005:bsp/libraries/drivers/src/at32f435_437_adc.c ****       }
1006:bsp/libraries/drivers/src/at32f435_437_adc.c ****       break;
1007:bsp/libraries/drivers/src/at32f435_437_adc.c ****     default:
1008:bsp/libraries/drivers/src/at32f435_437_adc.c ****       break;
1009:bsp/libraries/drivers/src/at32f435_437_adc.c ****   }
1010:bsp/libraries/drivers/src/at32f435_437_adc.c ****   return status;
 1887              		.loc 1 1010 3 is_stmt 1 view .LVU474
1011:bsp/libraries/drivers/src/at32f435_437_adc.c **** }
 1888              		.loc 1 1011 1 is_stmt 0 view .LVU475
 1889 009c 7047     		bx	lr
 1890              		.cfi_endproc
 1891              	.LFE173:
 1893              		.section	.text.adc_flag_clear,"ax",%progbits
 1894              		.align	1
 1895              		.global	adc_flag_clear
 1896              		.syntax unified
 1897              		.thumb
 1898              		.thumb_func
 1900              	adc_flag_clear:
 1901              	.LVL146:
 1902              	.LFB174:
1012:bsp/libraries/drivers/src/at32f435_437_adc.c **** 
1013:bsp/libraries/drivers/src/at32f435_437_adc.c **** /**
1014:bsp/libraries/drivers/src/at32f435_437_adc.c ****   * @brief  clear flag of the specified adc peripheral.
1015:bsp/libraries/drivers/src/at32f435_437_adc.c ****   * @param  adc_x: select the adc peripheral.
1016:bsp/libraries/drivers/src/at32f435_437_adc.c ****   *         this parameter can be one of the following values:
1017:bsp/libraries/drivers/src/at32f435_437_adc.c ****   *         ADC1, ADC2, ADC3.
1018:bsp/libraries/drivers/src/at32f435_437_adc.c ****   * @param  adc_flag: select the adc flag.
1019:bsp/libraries/drivers/src/at32f435_437_adc.c ****   *         this parameter can be any combination of the following values:
1020:bsp/libraries/drivers/src/at32f435_437_adc.c ****   *         - ADC_VMOR_FLAG
1021:bsp/libraries/drivers/src/at32f435_437_adc.c ****   *         - ADC_OCCE_FLAG(also can clear by reading the adc_x->odt)
1022:bsp/libraries/drivers/src/at32f435_437_adc.c ****   *         - ADC_PCCE_FLAG
1023:bsp/libraries/drivers/src/at32f435_437_adc.c ****   *         - ADC_PCCS_FLAG
1024:bsp/libraries/drivers/src/at32f435_437_adc.c ****   *         - ADC_OCCS_FLAG
1025:bsp/libraries/drivers/src/at32f435_437_adc.c ****   *         - ADC_OCCO_FLAG
1026:bsp/libraries/drivers/src/at32f435_437_adc.c ****   *         - note:"ADC_RDY_FLAG" cannot be choose!rdy bit is readonly bit,it means the adc is read
1027:bsp/libraries/drivers/src/at32f435_437_adc.c ****   * @retval none
1028:bsp/libraries/drivers/src/at32f435_437_adc.c ****   */
1029:bsp/libraries/drivers/src/at32f435_437_adc.c **** void adc_flag_clear(adc_type *adc_x, uint32_t adc_flag)
1030:bsp/libraries/drivers/src/at32f435_437_adc.c **** {
 1903              		.loc 1 1030 1 is_stmt 1 view -0
 1904              		.cfi_startproc
 1905              		@ args = 0, pretend = 0, frame = 0
 1906              		@ frame_needed = 0, uses_anonymous_args = 0
 1907              		@ link register save eliminated.
1031:bsp/libraries/drivers/src/at32f435_437_adc.c ****   adc_x->sts = ~adc_flag;
 1908              		.loc 1 1031 3 view .LVU477
 1909              		.loc 1 1031 16 is_stmt 0 view .LVU478
 1910 0000 C943     		mvns	r1, r1
 1911              	.LVL147:
 1912              		.loc 1 1031 14 view .LVU479
 1913 0002 0160     		str	r1, [r0]
1032:bsp/libraries/drivers/src/at32f435_437_adc.c **** }
 1914              		.loc 1 1032 1 view .LVU480
 1915 0004 7047     		bx	lr
ARM GAS  C:\Users\user\AppData\Local\Temp\ccXUtaRu.s 			page 53


 1916              		.cfi_endproc
 1917              	.LFE174:
 1919              		.section	.text.adc_ordinary_oversample_enable,"ax",%progbits
 1920              		.align	1
 1921              		.global	adc_ordinary_oversample_enable
 1922              		.syntax unified
 1923              		.thumb
 1924              		.thumb_func
 1926              	adc_ordinary_oversample_enable:
 1927              	.LVL148:
 1928              	.LFB175:
1033:bsp/libraries/drivers/src/at32f435_437_adc.c **** 
1034:bsp/libraries/drivers/src/at32f435_437_adc.c **** /**
1035:bsp/libraries/drivers/src/at32f435_437_adc.c ****   * @brief  enable or disable the ordinary oversampling of the specified adc peripheral.
1036:bsp/libraries/drivers/src/at32f435_437_adc.c ****   * @param  adc_x: select the adc peripheral.
1037:bsp/libraries/drivers/src/at32f435_437_adc.c ****   *         this parameter can be one of the following values:
1038:bsp/libraries/drivers/src/at32f435_437_adc.c ****   *         - ADC1, ADC2, ADC3.
1039:bsp/libraries/drivers/src/at32f435_437_adc.c ****   * @param  new_state: new state of ordinary oversampling.
1040:bsp/libraries/drivers/src/at32f435_437_adc.c ****   *         this parameter can be: TRUE or FALSE.
1041:bsp/libraries/drivers/src/at32f435_437_adc.c ****   * @retval none
1042:bsp/libraries/drivers/src/at32f435_437_adc.c ****   */
1043:bsp/libraries/drivers/src/at32f435_437_adc.c **** void adc_ordinary_oversample_enable(adc_type *adc_x, confirm_state new_state)
1044:bsp/libraries/drivers/src/at32f435_437_adc.c **** {
 1929              		.loc 1 1044 1 is_stmt 1 view -0
 1930              		.cfi_startproc
 1931              		@ args = 0, pretend = 0, frame = 0
 1932              		@ frame_needed = 0, uses_anonymous_args = 0
 1933              		@ link register save eliminated.
1045:bsp/libraries/drivers/src/at32f435_437_adc.c ****   adc_x->ovsp_bit.oosen = new_state;
 1934              		.loc 1 1045 3 view .LVU482
 1935              		.loc 1 1045 25 is_stmt 0 view .LVU483
 1936 0000 D0F88030 		ldr	r3, [r0, #128]
 1937 0004 61F30003 		bfi	r3, r1, #0, #1
 1938 0008 C0F88030 		str	r3, [r0, #128]
1046:bsp/libraries/drivers/src/at32f435_437_adc.c **** }
 1939              		.loc 1 1046 1 view .LVU484
 1940 000c 7047     		bx	lr
 1941              		.cfi_endproc
 1942              	.LFE175:
 1944              		.section	.text.adc_preempt_oversample_enable,"ax",%progbits
 1945              		.align	1
 1946              		.global	adc_preempt_oversample_enable
 1947              		.syntax unified
 1948              		.thumb
 1949              		.thumb_func
 1951              	adc_preempt_oversample_enable:
 1952              	.LVL149:
 1953              	.LFB176:
1047:bsp/libraries/drivers/src/at32f435_437_adc.c **** 
1048:bsp/libraries/drivers/src/at32f435_437_adc.c **** /**
1049:bsp/libraries/drivers/src/at32f435_437_adc.c ****   * @brief  enable or disable the preempt oversampling of the specified adc peripheral.
1050:bsp/libraries/drivers/src/at32f435_437_adc.c ****   * @param  adc_x: select the adc peripheral.
1051:bsp/libraries/drivers/src/at32f435_437_adc.c ****   *         this parameter can be one of the following values:
1052:bsp/libraries/drivers/src/at32f435_437_adc.c ****   *         - ADC1, ADC2, ADC3.
1053:bsp/libraries/drivers/src/at32f435_437_adc.c ****   * @param  new_state: new state of preempt oversampling.
1054:bsp/libraries/drivers/src/at32f435_437_adc.c ****   *         this parameter can be: TRUE or FALSE.
1055:bsp/libraries/drivers/src/at32f435_437_adc.c ****   * @retval none
ARM GAS  C:\Users\user\AppData\Local\Temp\ccXUtaRu.s 			page 54


1056:bsp/libraries/drivers/src/at32f435_437_adc.c ****   */
1057:bsp/libraries/drivers/src/at32f435_437_adc.c **** void adc_preempt_oversample_enable(adc_type *adc_x, confirm_state new_state)
1058:bsp/libraries/drivers/src/at32f435_437_adc.c **** {
 1954              		.loc 1 1058 1 is_stmt 1 view -0
 1955              		.cfi_startproc
 1956              		@ args = 0, pretend = 0, frame = 0
 1957              		@ frame_needed = 0, uses_anonymous_args = 0
 1958              		@ link register save eliminated.
1059:bsp/libraries/drivers/src/at32f435_437_adc.c ****   adc_x->ovsp_bit.posen = new_state;
 1959              		.loc 1 1059 3 view .LVU486
 1960              		.loc 1 1059 25 is_stmt 0 view .LVU487
 1961 0000 D0F88030 		ldr	r3, [r0, #128]
 1962 0004 61F34103 		bfi	r3, r1, #1, #1
 1963 0008 C0F88030 		str	r3, [r0, #128]
1060:bsp/libraries/drivers/src/at32f435_437_adc.c **** }
 1964              		.loc 1 1060 1 view .LVU488
 1965 000c 7047     		bx	lr
 1966              		.cfi_endproc
 1967              	.LFE176:
 1969              		.section	.text.adc_oversample_ratio_shift_set,"ax",%progbits
 1970              		.align	1
 1971              		.global	adc_oversample_ratio_shift_set
 1972              		.syntax unified
 1973              		.thumb
 1974              		.thumb_func
 1976              	adc_oversample_ratio_shift_set:
 1977              	.LVL150:
 1978              	.LFB177:
1061:bsp/libraries/drivers/src/at32f435_437_adc.c **** 
1062:bsp/libraries/drivers/src/at32f435_437_adc.c **** /**
1063:bsp/libraries/drivers/src/at32f435_437_adc.c ****   * @brief  config the oversampling ratio and shift of the specified adc peripheral.
1064:bsp/libraries/drivers/src/at32f435_437_adc.c ****   * @param  adc_x: select the adc peripheral.
1065:bsp/libraries/drivers/src/at32f435_437_adc.c ****   *         this parameter can be one of the following values:
1066:bsp/libraries/drivers/src/at32f435_437_adc.c ****   *         - ADC1, ADC2, ADC3.
1067:bsp/libraries/drivers/src/at32f435_437_adc.c ****   * @param  adc_oversample_ratio: set the oversample ratio.
1068:bsp/libraries/drivers/src/at32f435_437_adc.c ****   *         this parameter can be one of the following values:
1069:bsp/libraries/drivers/src/at32f435_437_adc.c ****   *         - ADC_OVERSAMPLE_RATIO_2
1070:bsp/libraries/drivers/src/at32f435_437_adc.c ****   *         - ADC_OVERSAMPLE_RATIO_4
1071:bsp/libraries/drivers/src/at32f435_437_adc.c ****   *         - ADC_OVERSAMPLE_RATIO_8
1072:bsp/libraries/drivers/src/at32f435_437_adc.c ****   *         - ADC_OVERSAMPLE_RATIO_16
1073:bsp/libraries/drivers/src/at32f435_437_adc.c ****   *         - ADC_OVERSAMPLE_RATIO_32
1074:bsp/libraries/drivers/src/at32f435_437_adc.c ****   *         - ADC_OVERSAMPLE_RATIO_64
1075:bsp/libraries/drivers/src/at32f435_437_adc.c ****   *         - ADC_OVERSAMPLE_RATIO_128
1076:bsp/libraries/drivers/src/at32f435_437_adc.c ****   *         - ADC_OVERSAMPLE_RATIO_256
1077:bsp/libraries/drivers/src/at32f435_437_adc.c ****   * @param  adc_oversample_shift: set the oversample shift.
1078:bsp/libraries/drivers/src/at32f435_437_adc.c ****   *         this parameter can be one of the following values:
1079:bsp/libraries/drivers/src/at32f435_437_adc.c ****   *         - ADC_OVERSAMPLE_SHIFT_0
1080:bsp/libraries/drivers/src/at32f435_437_adc.c ****   *         - ADC_OVERSAMPLE_SHIFT_1
1081:bsp/libraries/drivers/src/at32f435_437_adc.c ****   *         - ADC_OVERSAMPLE_SHIFT_2
1082:bsp/libraries/drivers/src/at32f435_437_adc.c ****   *         - ADC_OVERSAMPLE_SHIFT_3
1083:bsp/libraries/drivers/src/at32f435_437_adc.c ****   *         - ADC_OVERSAMPLE_SHIFT_4
1084:bsp/libraries/drivers/src/at32f435_437_adc.c ****   *         - ADC_OVERSAMPLE_SHIFT_5
1085:bsp/libraries/drivers/src/at32f435_437_adc.c ****   *         - ADC_OVERSAMPLE_SHIFT_6
1086:bsp/libraries/drivers/src/at32f435_437_adc.c ****   *         - ADC_OVERSAMPLE_SHIFT_7
1087:bsp/libraries/drivers/src/at32f435_437_adc.c ****   *         - ADC_OVERSAMPLE_SHIFT_8
1088:bsp/libraries/drivers/src/at32f435_437_adc.c ****   * @retval none
1089:bsp/libraries/drivers/src/at32f435_437_adc.c ****   */
ARM GAS  C:\Users\user\AppData\Local\Temp\ccXUtaRu.s 			page 55


1090:bsp/libraries/drivers/src/at32f435_437_adc.c **** void adc_oversample_ratio_shift_set(adc_type *adc_x, adc_oversample_ratio_type adc_oversample_ratio
1091:bsp/libraries/drivers/src/at32f435_437_adc.c **** {
 1979              		.loc 1 1091 1 is_stmt 1 view -0
 1980              		.cfi_startproc
 1981              		@ args = 0, pretend = 0, frame = 0
 1982              		@ frame_needed = 0, uses_anonymous_args = 0
 1983              		@ link register save eliminated.
1092:bsp/libraries/drivers/src/at32f435_437_adc.c ****   adc_x->ovsp_bit.osrsel = adc_oversample_ratio;
 1984              		.loc 1 1092 3 view .LVU490
 1985              		.loc 1 1092 26 is_stmt 0 view .LVU491
 1986 0000 D0F88030 		ldr	r3, [r0, #128]
 1987 0004 61F38403 		bfi	r3, r1, #2, #3
 1988 0008 C0F88030 		str	r3, [r0, #128]
1093:bsp/libraries/drivers/src/at32f435_437_adc.c ****   adc_x->ovsp_bit.osssel = adc_oversample_shift;
 1989              		.loc 1 1093 3 is_stmt 1 view .LVU492
 1990              		.loc 1 1093 26 is_stmt 0 view .LVU493
 1991 000c D0F88030 		ldr	r3, [r0, #128]
 1992 0010 62F34813 		bfi	r3, r2, #5, #4
 1993 0014 C0F88030 		str	r3, [r0, #128]
1094:bsp/libraries/drivers/src/at32f435_437_adc.c **** }
 1994              		.loc 1 1094 1 view .LVU494
 1995 0018 7047     		bx	lr
 1996              		.cfi_endproc
 1997              	.LFE177:
 1999              		.section	.text.adc_ordinary_oversample_trig_enable,"ax",%progbits
 2000              		.align	1
 2001              		.global	adc_ordinary_oversample_trig_enable
 2002              		.syntax unified
 2003              		.thumb
 2004              		.thumb_func
 2006              	adc_ordinary_oversample_trig_enable:
 2007              	.LVL151:
 2008              	.LFB178:
1095:bsp/libraries/drivers/src/at32f435_437_adc.c **** 
1096:bsp/libraries/drivers/src/at32f435_437_adc.c **** /**
1097:bsp/libraries/drivers/src/at32f435_437_adc.c ****   * @brief  enable or disable the ordinary oversampling trigger mode of the specified adc periphera
1098:bsp/libraries/drivers/src/at32f435_437_adc.c ****   * @param  adc_x: select the adc peripheral.
1099:bsp/libraries/drivers/src/at32f435_437_adc.c ****   *         this parameter can be one of the following values:
1100:bsp/libraries/drivers/src/at32f435_437_adc.c ****   *         - ADC1, ADC2, ADC3.
1101:bsp/libraries/drivers/src/at32f435_437_adc.c ****   * @param  new_state: new state of ordinary oversampling trigger mode.
1102:bsp/libraries/drivers/src/at32f435_437_adc.c ****   *         this parameter can be: TRUE or FALSE.
1103:bsp/libraries/drivers/src/at32f435_437_adc.c ****   * @retval none
1104:bsp/libraries/drivers/src/at32f435_437_adc.c ****   */
1105:bsp/libraries/drivers/src/at32f435_437_adc.c **** void adc_ordinary_oversample_trig_enable(adc_type *adc_x, confirm_state new_state)
1106:bsp/libraries/drivers/src/at32f435_437_adc.c **** {
 2009              		.loc 1 1106 1 is_stmt 1 view -0
 2010              		.cfi_startproc
 2011              		@ args = 0, pretend = 0, frame = 0
 2012              		@ frame_needed = 0, uses_anonymous_args = 0
 2013              		@ link register save eliminated.
1107:bsp/libraries/drivers/src/at32f435_437_adc.c ****   adc_x->ovsp_bit.oostren = new_state;
 2014              		.loc 1 1107 3 view .LVU496
 2015              		.loc 1 1107 27 is_stmt 0 view .LVU497
 2016 0000 D0F88030 		ldr	r3, [r0, #128]
 2017 0004 61F34923 		bfi	r3, r1, #9, #1
 2018 0008 C0F88030 		str	r3, [r0, #128]
1108:bsp/libraries/drivers/src/at32f435_437_adc.c **** }
ARM GAS  C:\Users\user\AppData\Local\Temp\ccXUtaRu.s 			page 56


 2019              		.loc 1 1108 1 view .LVU498
 2020 000c 7047     		bx	lr
 2021              		.cfi_endproc
 2022              	.LFE178:
 2024              		.section	.text.adc_ordinary_oversample_restart_set,"ax",%progbits
 2025              		.align	1
 2026              		.global	adc_ordinary_oversample_restart_set
 2027              		.syntax unified
 2028              		.thumb
 2029              		.thumb_func
 2031              	adc_ordinary_oversample_restart_set:
 2032              	.LVL152:
 2033              	.LFB179:
1109:bsp/libraries/drivers/src/at32f435_437_adc.c **** 
1110:bsp/libraries/drivers/src/at32f435_437_adc.c **** /**
1111:bsp/libraries/drivers/src/at32f435_437_adc.c ****   * @brief  set ordinary oversample restart mode of the specified adc peripheral.
1112:bsp/libraries/drivers/src/at32f435_437_adc.c ****   * @param  adc_x: select the adc peripheral.
1113:bsp/libraries/drivers/src/at32f435_437_adc.c ****   *         this parameter can be one of the following values:
1114:bsp/libraries/drivers/src/at32f435_437_adc.c ****   *         - ADC1, ADC2, ADC3.
1115:bsp/libraries/drivers/src/at32f435_437_adc.c ****   * @param  adc_or_oversample_restart: ordinary oversample restart mode.
1116:bsp/libraries/drivers/src/at32f435_437_adc.c ****   *         this parameter can be one of the following values:
1117:bsp/libraries/drivers/src/at32f435_437_adc.c ****   *         - ADC_OVERSAMPLE_CONTINUE
1118:bsp/libraries/drivers/src/at32f435_437_adc.c ****   *         - ADC_OVERSAMPLE_RESTART
1119:bsp/libraries/drivers/src/at32f435_437_adc.c ****   * @retval none
1120:bsp/libraries/drivers/src/at32f435_437_adc.c ****   */
1121:bsp/libraries/drivers/src/at32f435_437_adc.c **** void adc_ordinary_oversample_restart_set(adc_type *adc_x, adc_ordinary_oversample_restart_type adc_
1122:bsp/libraries/drivers/src/at32f435_437_adc.c **** {
 2034              		.loc 1 1122 1 is_stmt 1 view -0
 2035              		.cfi_startproc
 2036              		@ args = 0, pretend = 0, frame = 0
 2037              		@ frame_needed = 0, uses_anonymous_args = 0
 2038              		@ link register save eliminated.
1123:bsp/libraries/drivers/src/at32f435_437_adc.c ****   adc_x->ovsp_bit.oosrsel = adc_ordinary_oversample_restart;
 2039              		.loc 1 1123 3 view .LVU500
 2040              		.loc 1 1123 27 is_stmt 0 view .LVU501
 2041 0000 D0F88030 		ldr	r3, [r0, #128]
 2042 0004 61F38A23 		bfi	r3, r1, #10, #1
 2043 0008 C0F88030 		str	r3, [r0, #128]
1124:bsp/libraries/drivers/src/at32f435_437_adc.c **** }
 2044              		.loc 1 1124 1 view .LVU502
 2045 000c 7047     		bx	lr
 2046              		.cfi_endproc
 2047              	.LFE179:
 2049              		.text
 2050              	.Letext0:
 2051              		.file 2 "c:\\at32ide\\platform\\tools\\gcc-arm-none-eabi-10.3-2021.10\\arm-none-eabi\\include\\mac
 2052              		.file 3 "c:\\at32ide\\platform\\tools\\gcc-arm-none-eabi-10.3-2021.10\\arm-none-eabi\\include\\sys
 2053              		.file 4 "bsp/libraries/cmsis/cm4/device_support/at32f435_437.h"
 2054              		.file 5 "bsp/libraries/drivers/inc/at32f435_437_crm.h"
 2055              		.file 6 "bsp/libraries/drivers/inc/at32f435_437_adc.h"
ARM GAS  C:\Users\user\AppData\Local\Temp\ccXUtaRu.s 			page 57

