ARM GAS  C:\Users\user\AppData\Local\Temp\cccs5OkE.s 			page 1


   1              		.cpu cortex-m4
   2              		.arch armv7e-m
   3              		.fpu softvfp
   4              		.eabi_attribute 20, 1
   5              		.eabi_attribute 21, 1
   6              		.eabi_attribute 23, 3
   7              		.eabi_attribute 24, 1
   8              		.eabi_attribute 25, 1
   9              		.eabi_attribute 26, 1
  10              		.eabi_attribute 30, 1
  11              		.eabi_attribute 34, 1
  12              		.eabi_attribute 18, 4
  13              		.file	"at32f435_437_tmr.c"
  14              		.text
  15              	.Ltext0:
  16              		.cfi_sections	.debug_frame
  17              		.section	.text.tmr_reset,"ax",%progbits
  18              		.align	1
  19              		.global	tmr_reset
  20              		.syntax unified
  21              		.thumb
  22              		.thumb_func
  24              	tmr_reset:
  25              	.LVL0:
  26              	.LFB133:
  27              		.file 1 "bsp/libraries/drivers/src/at32f435_437_tmr.c"
   1:bsp/libraries/drivers/src/at32f435_437_tmr.c **** /**
   2:bsp/libraries/drivers/src/at32f435_437_tmr.c ****   **************************************************************************
   3:bsp/libraries/drivers/src/at32f435_437_tmr.c ****   * @file     at32f435_437_tmr.c
   4:bsp/libraries/drivers/src/at32f435_437_tmr.c ****   * @brief    contains all the functions for the tmr firmware library
   5:bsp/libraries/drivers/src/at32f435_437_tmr.c ****   **************************************************************************
   6:bsp/libraries/drivers/src/at32f435_437_tmr.c ****   *                       Copyright notice & Disclaimer
   7:bsp/libraries/drivers/src/at32f435_437_tmr.c ****   *
   8:bsp/libraries/drivers/src/at32f435_437_tmr.c ****   * The software Board Support Package (BSP) that is made available to
   9:bsp/libraries/drivers/src/at32f435_437_tmr.c ****   * download from Artery official website is the copyrighted work of Artery.
  10:bsp/libraries/drivers/src/at32f435_437_tmr.c ****   * Artery authorizes customers to use, copy, and distribute the BSP
  11:bsp/libraries/drivers/src/at32f435_437_tmr.c ****   * software and its related documentation for the purpose of design and
  12:bsp/libraries/drivers/src/at32f435_437_tmr.c ****   * development in conjunction with Artery microcontrollers. Use of the
  13:bsp/libraries/drivers/src/at32f435_437_tmr.c ****   * software is governed by this copyright notice and the following disclaimer.
  14:bsp/libraries/drivers/src/at32f435_437_tmr.c ****   *
  15:bsp/libraries/drivers/src/at32f435_437_tmr.c ****   * THIS SOFTWARE IS PROVIDED ON "AS IS" BASIS WITHOUT WARRANTIES,
  16:bsp/libraries/drivers/src/at32f435_437_tmr.c ****   * GUARANTEES OR REPRESENTATIONS OF ANY KIND. ARTERY EXPRESSLY DISCLAIMS,
  17:bsp/libraries/drivers/src/at32f435_437_tmr.c ****   * TO THE FULLEST EXTENT PERMITTED BY LAW, ALL EXPRESS, IMPLIED OR
  18:bsp/libraries/drivers/src/at32f435_437_tmr.c ****   * STATUTORY OR OTHER WARRANTIES, GUARANTEES OR REPRESENTATIONS,
  19:bsp/libraries/drivers/src/at32f435_437_tmr.c ****   * INCLUDING BUT NOT LIMITED TO, THE IMPLIED WARRANTIES OF MERCHANTABILITY,
  20:bsp/libraries/drivers/src/at32f435_437_tmr.c ****   * FITNESS FOR A PARTICULAR PURPOSE, OR NON-INFRINGEMENT.
  21:bsp/libraries/drivers/src/at32f435_437_tmr.c ****   *
  22:bsp/libraries/drivers/src/at32f435_437_tmr.c ****   **************************************************************************
  23:bsp/libraries/drivers/src/at32f435_437_tmr.c ****   */
  24:bsp/libraries/drivers/src/at32f435_437_tmr.c **** 
  25:bsp/libraries/drivers/src/at32f435_437_tmr.c **** #include "at32f435_437_conf.h"
  26:bsp/libraries/drivers/src/at32f435_437_tmr.c **** 
  27:bsp/libraries/drivers/src/at32f435_437_tmr.c **** /** @addtogroup AT32F435_437_periph_driver
  28:bsp/libraries/drivers/src/at32f435_437_tmr.c ****   * @{
  29:bsp/libraries/drivers/src/at32f435_437_tmr.c ****   */
  30:bsp/libraries/drivers/src/at32f435_437_tmr.c **** 
  31:bsp/libraries/drivers/src/at32f435_437_tmr.c **** /** @defgroup TMR
ARM GAS  C:\Users\user\AppData\Local\Temp\cccs5OkE.s 			page 2


  32:bsp/libraries/drivers/src/at32f435_437_tmr.c ****   * @brief TMR driver modules
  33:bsp/libraries/drivers/src/at32f435_437_tmr.c ****   * @{
  34:bsp/libraries/drivers/src/at32f435_437_tmr.c ****   */
  35:bsp/libraries/drivers/src/at32f435_437_tmr.c **** 
  36:bsp/libraries/drivers/src/at32f435_437_tmr.c **** #ifdef TMR_MODULE_ENABLED
  37:bsp/libraries/drivers/src/at32f435_437_tmr.c **** 
  38:bsp/libraries/drivers/src/at32f435_437_tmr.c **** /** @defgroup TMR_private_functions
  39:bsp/libraries/drivers/src/at32f435_437_tmr.c ****   * @{
  40:bsp/libraries/drivers/src/at32f435_437_tmr.c ****   */
  41:bsp/libraries/drivers/src/at32f435_437_tmr.c **** 
  42:bsp/libraries/drivers/src/at32f435_437_tmr.c **** /**
  43:bsp/libraries/drivers/src/at32f435_437_tmr.c ****   * @brief  tmr reset by crm reset register
  44:bsp/libraries/drivers/src/at32f435_437_tmr.c ****   * @param  tmr_x: select the tmr peripheral.
  45:bsp/libraries/drivers/src/at32f435_437_tmr.c ****   *         this parameter can be one of the following values:
  46:bsp/libraries/drivers/src/at32f435_437_tmr.c ****   *         TMR1, TMR2, TMR3, TMR4, TMR5, TMR6, TMR7, TMR8,
  47:bsp/libraries/drivers/src/at32f435_437_tmr.c ****   *         TMR9, TMR10, TMR11, TMR12, TMR13, TMR14, TMR20
  48:bsp/libraries/drivers/src/at32f435_437_tmr.c ****   * @retval none
  49:bsp/libraries/drivers/src/at32f435_437_tmr.c ****   */
  50:bsp/libraries/drivers/src/at32f435_437_tmr.c **** void tmr_reset(tmr_type *tmr_x)
  51:bsp/libraries/drivers/src/at32f435_437_tmr.c **** {
  28              		.loc 1 51 1 view -0
  29              		.cfi_startproc
  30              		@ args = 0, pretend = 0, frame = 0
  31              		@ frame_needed = 0, uses_anonymous_args = 0
  32              		.loc 1 51 1 is_stmt 0 view .LVU1
  33 0000 10B5     		push	{r4, lr}
  34              	.LCFI0:
  35              		.cfi_def_cfa_offset 8
  36              		.cfi_offset 4, -8
  37              		.cfi_offset 14, -4
  52:bsp/libraries/drivers/src/at32f435_437_tmr.c ****   if(tmr_x == TMR1)
  38              		.loc 1 52 3 is_stmt 1 view .LVU2
  39              		.loc 1 52 5 is_stmt 0 view .LVU3
  40 0002 644B     		ldr	r3, .L32
  41 0004 9842     		cmp	r0, r3
  42 0006 36D0     		beq	.L18
  53:bsp/libraries/drivers/src/at32f435_437_tmr.c ****   {
  54:bsp/libraries/drivers/src/at32f435_437_tmr.c ****     crm_periph_reset(CRM_TMR1_PERIPH_RESET, TRUE);
  55:bsp/libraries/drivers/src/at32f435_437_tmr.c ****     crm_periph_reset(CRM_TMR1_PERIPH_RESET, FALSE);
  56:bsp/libraries/drivers/src/at32f435_437_tmr.c ****   }
  57:bsp/libraries/drivers/src/at32f435_437_tmr.c ****   else if(tmr_x == TMR2)
  43              		.loc 1 57 8 is_stmt 1 view .LVU4
  44              		.loc 1 57 10 is_stmt 0 view .LVU5
  45 0008 B0F1804F 		cmp	r0, #1073741824
  46 000c 3ED0     		beq	.L19
  58:bsp/libraries/drivers/src/at32f435_437_tmr.c ****   {
  59:bsp/libraries/drivers/src/at32f435_437_tmr.c ****     crm_periph_reset(CRM_TMR2_PERIPH_RESET, TRUE);
  60:bsp/libraries/drivers/src/at32f435_437_tmr.c ****     crm_periph_reset(CRM_TMR2_PERIPH_RESET, FALSE);
  61:bsp/libraries/drivers/src/at32f435_437_tmr.c ****   }
  62:bsp/libraries/drivers/src/at32f435_437_tmr.c ****   else if(tmr_x == TMR3)
  47              		.loc 1 62 8 is_stmt 1 view .LVU6
  48              		.loc 1 62 10 is_stmt 0 view .LVU7
  49 000e 624B     		ldr	r3, .L32+4
  50 0010 9842     		cmp	r0, r3
  51 0012 46D0     		beq	.L20
  63:bsp/libraries/drivers/src/at32f435_437_tmr.c ****   {
  64:bsp/libraries/drivers/src/at32f435_437_tmr.c ****     crm_periph_reset(CRM_TMR3_PERIPH_RESET, TRUE);
ARM GAS  C:\Users\user\AppData\Local\Temp\cccs5OkE.s 			page 3


  65:bsp/libraries/drivers/src/at32f435_437_tmr.c ****     crm_periph_reset(CRM_TMR3_PERIPH_RESET, FALSE);
  66:bsp/libraries/drivers/src/at32f435_437_tmr.c ****   }
  67:bsp/libraries/drivers/src/at32f435_437_tmr.c ****   else if(tmr_x == TMR4)
  52              		.loc 1 67 8 is_stmt 1 view .LVU8
  53              		.loc 1 67 10 is_stmt 0 view .LVU9
  54 0014 614B     		ldr	r3, .L32+8
  55 0016 9842     		cmp	r0, r3
  56 0018 4DD0     		beq	.L21
  68:bsp/libraries/drivers/src/at32f435_437_tmr.c ****   {
  69:bsp/libraries/drivers/src/at32f435_437_tmr.c ****     crm_periph_reset(CRM_TMR4_PERIPH_RESET, TRUE);
  70:bsp/libraries/drivers/src/at32f435_437_tmr.c ****     crm_periph_reset(CRM_TMR4_PERIPH_RESET, FALSE);
  71:bsp/libraries/drivers/src/at32f435_437_tmr.c ****   }
  72:bsp/libraries/drivers/src/at32f435_437_tmr.c ****   else if(tmr_x == TMR5)
  57              		.loc 1 72 8 is_stmt 1 view .LVU10
  58              		.loc 1 72 10 is_stmt 0 view .LVU11
  59 001a 614B     		ldr	r3, .L32+12
  60 001c 9842     		cmp	r0, r3
  61 001e 54D0     		beq	.L22
  73:bsp/libraries/drivers/src/at32f435_437_tmr.c ****   {
  74:bsp/libraries/drivers/src/at32f435_437_tmr.c ****     crm_periph_reset(CRM_TMR5_PERIPH_RESET, TRUE);
  75:bsp/libraries/drivers/src/at32f435_437_tmr.c ****     crm_periph_reset(CRM_TMR5_PERIPH_RESET, FALSE);
  76:bsp/libraries/drivers/src/at32f435_437_tmr.c ****   }
  77:bsp/libraries/drivers/src/at32f435_437_tmr.c ****   else if(tmr_x == TMR6)
  62              		.loc 1 77 8 is_stmt 1 view .LVU12
  63              		.loc 1 77 10 is_stmt 0 view .LVU13
  64 0020 604B     		ldr	r3, .L32+16
  65 0022 9842     		cmp	r0, r3
  66 0024 5BD0     		beq	.L23
  78:bsp/libraries/drivers/src/at32f435_437_tmr.c ****   {
  79:bsp/libraries/drivers/src/at32f435_437_tmr.c ****     crm_periph_reset(CRM_TMR6_PERIPH_RESET, TRUE);
  80:bsp/libraries/drivers/src/at32f435_437_tmr.c ****     crm_periph_reset(CRM_TMR6_PERIPH_RESET, FALSE);
  81:bsp/libraries/drivers/src/at32f435_437_tmr.c ****   }
  82:bsp/libraries/drivers/src/at32f435_437_tmr.c ****   else if(tmr_x == TMR7)
  67              		.loc 1 82 8 is_stmt 1 view .LVU14
  68              		.loc 1 82 10 is_stmt 0 view .LVU15
  69 0026 604B     		ldr	r3, .L32+20
  70 0028 9842     		cmp	r0, r3
  71 002a 62D0     		beq	.L24
  83:bsp/libraries/drivers/src/at32f435_437_tmr.c ****   {
  84:bsp/libraries/drivers/src/at32f435_437_tmr.c ****     crm_periph_reset(CRM_TMR7_PERIPH_RESET, TRUE);
  85:bsp/libraries/drivers/src/at32f435_437_tmr.c ****     crm_periph_reset(CRM_TMR7_PERIPH_RESET, FALSE);
  86:bsp/libraries/drivers/src/at32f435_437_tmr.c ****   }
  87:bsp/libraries/drivers/src/at32f435_437_tmr.c ****   else if(tmr_x == TMR8)
  72              		.loc 1 87 8 is_stmt 1 view .LVU16
  73              		.loc 1 87 10 is_stmt 0 view .LVU17
  74 002c 5F4B     		ldr	r3, .L32+24
  75 002e 9842     		cmp	r0, r3
  76 0030 69D0     		beq	.L25
  88:bsp/libraries/drivers/src/at32f435_437_tmr.c ****   {
  89:bsp/libraries/drivers/src/at32f435_437_tmr.c ****     crm_periph_reset(CRM_TMR8_PERIPH_RESET, TRUE);
  90:bsp/libraries/drivers/src/at32f435_437_tmr.c ****     crm_periph_reset(CRM_TMR8_PERIPH_RESET, FALSE);
  91:bsp/libraries/drivers/src/at32f435_437_tmr.c ****   }
  92:bsp/libraries/drivers/src/at32f435_437_tmr.c ****   else if(tmr_x == TMR9)
  77              		.loc 1 92 8 is_stmt 1 view .LVU18
  78              		.loc 1 92 10 is_stmt 0 view .LVU19
  79 0032 5F4B     		ldr	r3, .L32+28
  80 0034 9842     		cmp	r0, r3
ARM GAS  C:\Users\user\AppData\Local\Temp\cccs5OkE.s 			page 4


  81 0036 70D0     		beq	.L26
  93:bsp/libraries/drivers/src/at32f435_437_tmr.c ****   {
  94:bsp/libraries/drivers/src/at32f435_437_tmr.c ****     crm_periph_reset(CRM_TMR9_PERIPH_RESET, TRUE);
  95:bsp/libraries/drivers/src/at32f435_437_tmr.c ****     crm_periph_reset(CRM_TMR9_PERIPH_RESET, FALSE);
  96:bsp/libraries/drivers/src/at32f435_437_tmr.c ****   }
  97:bsp/libraries/drivers/src/at32f435_437_tmr.c ****   else if(tmr_x == TMR10)
  82              		.loc 1 97 8 is_stmt 1 view .LVU20
  83              		.loc 1 97 10 is_stmt 0 view .LVU21
  84 0038 5E4B     		ldr	r3, .L32+32
  85 003a 9842     		cmp	r0, r3
  86 003c 77D0     		beq	.L27
  98:bsp/libraries/drivers/src/at32f435_437_tmr.c ****   {
  99:bsp/libraries/drivers/src/at32f435_437_tmr.c ****     crm_periph_reset(CRM_TMR10_PERIPH_RESET, TRUE);
 100:bsp/libraries/drivers/src/at32f435_437_tmr.c ****     crm_periph_reset(CRM_TMR10_PERIPH_RESET, FALSE);
 101:bsp/libraries/drivers/src/at32f435_437_tmr.c ****   }
 102:bsp/libraries/drivers/src/at32f435_437_tmr.c ****   else if(tmr_x == TMR11)
  87              		.loc 1 102 8 is_stmt 1 view .LVU22
  88              		.loc 1 102 10 is_stmt 0 view .LVU23
  89 003e 5E4B     		ldr	r3, .L32+36
  90 0040 9842     		cmp	r0, r3
  91 0042 7ED0     		beq	.L28
 103:bsp/libraries/drivers/src/at32f435_437_tmr.c ****   {
 104:bsp/libraries/drivers/src/at32f435_437_tmr.c ****     crm_periph_reset(CRM_TMR11_PERIPH_RESET, TRUE);
 105:bsp/libraries/drivers/src/at32f435_437_tmr.c ****     crm_periph_reset(CRM_TMR11_PERIPH_RESET, FALSE);
 106:bsp/libraries/drivers/src/at32f435_437_tmr.c ****   }
 107:bsp/libraries/drivers/src/at32f435_437_tmr.c ****   else if(tmr_x == TMR12)
  92              		.loc 1 107 8 is_stmt 1 view .LVU24
  93              		.loc 1 107 10 is_stmt 0 view .LVU25
  94 0044 5D4B     		ldr	r3, .L32+40
  95 0046 9842     		cmp	r0, r3
  96 0048 00F08580 		beq	.L29
 108:bsp/libraries/drivers/src/at32f435_437_tmr.c ****   {
 109:bsp/libraries/drivers/src/at32f435_437_tmr.c ****     crm_periph_reset(CRM_TMR12_PERIPH_RESET, TRUE);
 110:bsp/libraries/drivers/src/at32f435_437_tmr.c ****     crm_periph_reset(CRM_TMR12_PERIPH_RESET, FALSE);
 111:bsp/libraries/drivers/src/at32f435_437_tmr.c ****   }
 112:bsp/libraries/drivers/src/at32f435_437_tmr.c ****   else if(tmr_x == TMR13)
  97              		.loc 1 112 8 is_stmt 1 view .LVU26
  98              		.loc 1 112 10 is_stmt 0 view .LVU27
  99 004c 5C4B     		ldr	r3, .L32+44
 100 004e 9842     		cmp	r0, r3
 101 0050 00F08B80 		beq	.L30
 113:bsp/libraries/drivers/src/at32f435_437_tmr.c ****   {
 114:bsp/libraries/drivers/src/at32f435_437_tmr.c ****     crm_periph_reset(CRM_TMR13_PERIPH_RESET, TRUE);
 115:bsp/libraries/drivers/src/at32f435_437_tmr.c ****     crm_periph_reset(CRM_TMR13_PERIPH_RESET, FALSE);
 116:bsp/libraries/drivers/src/at32f435_437_tmr.c ****   }
 117:bsp/libraries/drivers/src/at32f435_437_tmr.c ****   else if(tmr_x == TMR14)
 102              		.loc 1 117 8 is_stmt 1 view .LVU28
 103              		.loc 1 117 10 is_stmt 0 view .LVU29
 104 0054 5B4B     		ldr	r3, .L32+48
 105 0056 9842     		cmp	r0, r3
 106 0058 00F09180 		beq	.L31
 118:bsp/libraries/drivers/src/at32f435_437_tmr.c ****   {
 119:bsp/libraries/drivers/src/at32f435_437_tmr.c ****     crm_periph_reset(CRM_TMR14_PERIPH_RESET, TRUE);
 120:bsp/libraries/drivers/src/at32f435_437_tmr.c ****     crm_periph_reset(CRM_TMR14_PERIPH_RESET, FALSE);
 121:bsp/libraries/drivers/src/at32f435_437_tmr.c ****   }
 122:bsp/libraries/drivers/src/at32f435_437_tmr.c ****   else if(tmr_x == TMR20)
 107              		.loc 1 122 8 is_stmt 1 view .LVU30
ARM GAS  C:\Users\user\AppData\Local\Temp\cccs5OkE.s 			page 5


 108              		.loc 1 122 10 is_stmt 0 view .LVU31
 109 005c 5A4B     		ldr	r3, .L32+52
 110 005e 9842     		cmp	r0, r3
 111 0060 13D1     		bne	.L1
 123:bsp/libraries/drivers/src/at32f435_437_tmr.c ****   {
 124:bsp/libraries/drivers/src/at32f435_437_tmr.c ****     crm_periph_reset(CRM_TMR20_PERIPH_RESET, TRUE);
 112              		.loc 1 124 5 is_stmt 1 view .LVU32
 113 0062 5A4C     		ldr	r4, .L32+56
 114 0064 0121     		movs	r1, #1
 115 0066 2046     		mov	r0, r4
 116              	.LVL1:
 117              		.loc 1 124 5 is_stmt 0 view .LVU33
 118 0068 FFF7FEFF 		bl	crm_periph_reset
 119              	.LVL2:
 125:bsp/libraries/drivers/src/at32f435_437_tmr.c ****     crm_periph_reset(CRM_TMR20_PERIPH_RESET, FALSE);
 120              		.loc 1 125 5 is_stmt 1 view .LVU34
 121 006c 0021     		movs	r1, #0
 122 006e 2046     		mov	r0, r4
 123 0070 FFF7FEFF 		bl	crm_periph_reset
 124              	.LVL3:
 126:bsp/libraries/drivers/src/at32f435_437_tmr.c ****   }
 127:bsp/libraries/drivers/src/at32f435_437_tmr.c **** }
 125              		.loc 1 127 1 is_stmt 0 view .LVU35
 126 0074 09E0     		b	.L1
 127              	.LVL4:
 128              	.L18:
  54:bsp/libraries/drivers/src/at32f435_437_tmr.c ****     crm_periph_reset(CRM_TMR1_PERIPH_RESET, FALSE);
 129              		.loc 1 54 5 is_stmt 1 view .LVU36
 130 0076 0121     		movs	r1, #1
 131 0078 4FF41010 		mov	r0, #2359296
 132              	.LVL5:
  54:bsp/libraries/drivers/src/at32f435_437_tmr.c ****     crm_periph_reset(CRM_TMR1_PERIPH_RESET, FALSE);
 133              		.loc 1 54 5 is_stmt 0 view .LVU37
 134 007c FFF7FEFF 		bl	crm_periph_reset
 135              	.LVL6:
  55:bsp/libraries/drivers/src/at32f435_437_tmr.c ****   }
 136              		.loc 1 55 5 is_stmt 1 view .LVU38
 137 0080 0021     		movs	r1, #0
 138 0082 4FF41010 		mov	r0, #2359296
 139 0086 FFF7FEFF 		bl	crm_periph_reset
 140              	.LVL7:
 141              	.L1:
 142              		.loc 1 127 1 is_stmt 0 view .LVU39
 143 008a 10BD     		pop	{r4, pc}
 144              	.LVL8:
 145              	.L19:
  59:bsp/libraries/drivers/src/at32f435_437_tmr.c ****     crm_periph_reset(CRM_TMR2_PERIPH_RESET, FALSE);
 146              		.loc 1 59 5 is_stmt 1 view .LVU40
 147 008c 0121     		movs	r1, #1
 148 008e 4FF40010 		mov	r0, #2097152
 149              	.LVL9:
  59:bsp/libraries/drivers/src/at32f435_437_tmr.c ****     crm_periph_reset(CRM_TMR2_PERIPH_RESET, FALSE);
 150              		.loc 1 59 5 is_stmt 0 view .LVU41
 151 0092 FFF7FEFF 		bl	crm_periph_reset
 152              	.LVL10:
  60:bsp/libraries/drivers/src/at32f435_437_tmr.c ****   }
 153              		.loc 1 60 5 is_stmt 1 view .LVU42
ARM GAS  C:\Users\user\AppData\Local\Temp\cccs5OkE.s 			page 6


 154 0096 0021     		movs	r1, #0
 155 0098 4FF40010 		mov	r0, #2097152
 156 009c FFF7FEFF 		bl	crm_periph_reset
 157              	.LVL11:
 158 00a0 F3E7     		b	.L1
 159              	.LVL12:
 160              	.L20:
  64:bsp/libraries/drivers/src/at32f435_437_tmr.c ****     crm_periph_reset(CRM_TMR3_PERIPH_RESET, FALSE);
 161              		.loc 1 64 5 view .LVU43
 162 00a2 4B4C     		ldr	r4, .L32+60
 163 00a4 0121     		movs	r1, #1
 164 00a6 2046     		mov	r0, r4
 165              	.LVL13:
  64:bsp/libraries/drivers/src/at32f435_437_tmr.c ****     crm_periph_reset(CRM_TMR3_PERIPH_RESET, FALSE);
 166              		.loc 1 64 5 is_stmt 0 view .LVU44
 167 00a8 FFF7FEFF 		bl	crm_periph_reset
 168              	.LVL14:
  65:bsp/libraries/drivers/src/at32f435_437_tmr.c ****   }
 169              		.loc 1 65 5 is_stmt 1 view .LVU45
 170 00ac 0021     		movs	r1, #0
 171 00ae 2046     		mov	r0, r4
 172 00b0 FFF7FEFF 		bl	crm_periph_reset
 173              	.LVL15:
 174 00b4 E9E7     		b	.L1
 175              	.LVL16:
 176              	.L21:
  69:bsp/libraries/drivers/src/at32f435_437_tmr.c ****     crm_periph_reset(CRM_TMR4_PERIPH_RESET, FALSE);
 177              		.loc 1 69 5 view .LVU46
 178 00b6 474C     		ldr	r4, .L32+64
 179 00b8 0121     		movs	r1, #1
 180 00ba 2046     		mov	r0, r4
 181              	.LVL17:
  69:bsp/libraries/drivers/src/at32f435_437_tmr.c ****     crm_periph_reset(CRM_TMR4_PERIPH_RESET, FALSE);
 182              		.loc 1 69 5 is_stmt 0 view .LVU47
 183 00bc FFF7FEFF 		bl	crm_periph_reset
 184              	.LVL18:
  70:bsp/libraries/drivers/src/at32f435_437_tmr.c ****   }
 185              		.loc 1 70 5 is_stmt 1 view .LVU48
 186 00c0 0021     		movs	r1, #0
 187 00c2 2046     		mov	r0, r4
 188 00c4 FFF7FEFF 		bl	crm_periph_reset
 189              	.LVL19:
 190 00c8 DFE7     		b	.L1
 191              	.LVL20:
 192              	.L22:
  74:bsp/libraries/drivers/src/at32f435_437_tmr.c ****     crm_periph_reset(CRM_TMR5_PERIPH_RESET, FALSE);
 193              		.loc 1 74 5 view .LVU49
 194 00ca 434C     		ldr	r4, .L32+68
 195 00cc 0121     		movs	r1, #1
 196 00ce 2046     		mov	r0, r4
 197              	.LVL21:
  74:bsp/libraries/drivers/src/at32f435_437_tmr.c ****     crm_periph_reset(CRM_TMR5_PERIPH_RESET, FALSE);
 198              		.loc 1 74 5 is_stmt 0 view .LVU50
 199 00d0 FFF7FEFF 		bl	crm_periph_reset
 200              	.LVL22:
  75:bsp/libraries/drivers/src/at32f435_437_tmr.c ****   }
 201              		.loc 1 75 5 is_stmt 1 view .LVU51
ARM GAS  C:\Users\user\AppData\Local\Temp\cccs5OkE.s 			page 7


 202 00d4 0021     		movs	r1, #0
 203 00d6 2046     		mov	r0, r4
 204 00d8 FFF7FEFF 		bl	crm_periph_reset
 205              	.LVL23:
 206 00dc D5E7     		b	.L1
 207              	.LVL24:
 208              	.L23:
  79:bsp/libraries/drivers/src/at32f435_437_tmr.c ****     crm_periph_reset(CRM_TMR6_PERIPH_RESET, FALSE);
 209              		.loc 1 79 5 view .LVU52
 210 00de 3F4C     		ldr	r4, .L32+72
 211 00e0 0121     		movs	r1, #1
 212 00e2 2046     		mov	r0, r4
 213              	.LVL25:
  79:bsp/libraries/drivers/src/at32f435_437_tmr.c ****     crm_periph_reset(CRM_TMR6_PERIPH_RESET, FALSE);
 214              		.loc 1 79 5 is_stmt 0 view .LVU53
 215 00e4 FFF7FEFF 		bl	crm_periph_reset
 216              	.LVL26:
  80:bsp/libraries/drivers/src/at32f435_437_tmr.c ****   }
 217              		.loc 1 80 5 is_stmt 1 view .LVU54
 218 00e8 0021     		movs	r1, #0
 219 00ea 2046     		mov	r0, r4
 220 00ec FFF7FEFF 		bl	crm_periph_reset
 221              	.LVL27:
 222 00f0 CBE7     		b	.L1
 223              	.LVL28:
 224              	.L24:
  84:bsp/libraries/drivers/src/at32f435_437_tmr.c ****     crm_periph_reset(CRM_TMR7_PERIPH_RESET, FALSE);
 225              		.loc 1 84 5 view .LVU55
 226 00f2 3B4C     		ldr	r4, .L32+76
 227 00f4 0121     		movs	r1, #1
 228 00f6 2046     		mov	r0, r4
 229              	.LVL29:
  84:bsp/libraries/drivers/src/at32f435_437_tmr.c ****     crm_periph_reset(CRM_TMR7_PERIPH_RESET, FALSE);
 230              		.loc 1 84 5 is_stmt 0 view .LVU56
 231 00f8 FFF7FEFF 		bl	crm_periph_reset
 232              	.LVL30:
  85:bsp/libraries/drivers/src/at32f435_437_tmr.c ****   }
 233              		.loc 1 85 5 is_stmt 1 view .LVU57
 234 00fc 0021     		movs	r1, #0
 235 00fe 2046     		mov	r0, r4
 236 0100 FFF7FEFF 		bl	crm_periph_reset
 237              	.LVL31:
 238 0104 C1E7     		b	.L1
 239              	.LVL32:
 240              	.L25:
  89:bsp/libraries/drivers/src/at32f435_437_tmr.c ****     crm_periph_reset(CRM_TMR8_PERIPH_RESET, FALSE);
 241              		.loc 1 89 5 view .LVU58
 242 0106 374C     		ldr	r4, .L32+80
 243 0108 0121     		movs	r1, #1
 244 010a 2046     		mov	r0, r4
 245              	.LVL33:
  89:bsp/libraries/drivers/src/at32f435_437_tmr.c ****     crm_periph_reset(CRM_TMR8_PERIPH_RESET, FALSE);
 246              		.loc 1 89 5 is_stmt 0 view .LVU59
 247 010c FFF7FEFF 		bl	crm_periph_reset
 248              	.LVL34:
  90:bsp/libraries/drivers/src/at32f435_437_tmr.c ****   }
 249              		.loc 1 90 5 is_stmt 1 view .LVU60
ARM GAS  C:\Users\user\AppData\Local\Temp\cccs5OkE.s 			page 8


 250 0110 0021     		movs	r1, #0
 251 0112 2046     		mov	r0, r4
 252 0114 FFF7FEFF 		bl	crm_periph_reset
 253              	.LVL35:
 254 0118 B7E7     		b	.L1
 255              	.LVL36:
 256              	.L26:
  94:bsp/libraries/drivers/src/at32f435_437_tmr.c ****     crm_periph_reset(CRM_TMR9_PERIPH_RESET, FALSE);
 257              		.loc 1 94 5 view .LVU61
 258 011a 334C     		ldr	r4, .L32+84
 259 011c 0121     		movs	r1, #1
 260 011e 2046     		mov	r0, r4
 261              	.LVL37:
  94:bsp/libraries/drivers/src/at32f435_437_tmr.c ****     crm_periph_reset(CRM_TMR9_PERIPH_RESET, FALSE);
 262              		.loc 1 94 5 is_stmt 0 view .LVU62
 263 0120 FFF7FEFF 		bl	crm_periph_reset
 264              	.LVL38:
  95:bsp/libraries/drivers/src/at32f435_437_tmr.c ****   }
 265              		.loc 1 95 5 is_stmt 1 view .LVU63
 266 0124 0021     		movs	r1, #0
 267 0126 2046     		mov	r0, r4
 268 0128 FFF7FEFF 		bl	crm_periph_reset
 269              	.LVL39:
 270 012c ADE7     		b	.L1
 271              	.LVL40:
 272              	.L27:
  99:bsp/libraries/drivers/src/at32f435_437_tmr.c ****     crm_periph_reset(CRM_TMR10_PERIPH_RESET, FALSE);
 273              		.loc 1 99 5 view .LVU64
 274 012e 2F4C     		ldr	r4, .L32+88
 275 0130 0121     		movs	r1, #1
 276 0132 2046     		mov	r0, r4
 277              	.LVL41:
  99:bsp/libraries/drivers/src/at32f435_437_tmr.c ****     crm_periph_reset(CRM_TMR10_PERIPH_RESET, FALSE);
 278              		.loc 1 99 5 is_stmt 0 view .LVU65
 279 0134 FFF7FEFF 		bl	crm_periph_reset
 280              	.LVL42:
 100:bsp/libraries/drivers/src/at32f435_437_tmr.c ****   }
 281              		.loc 1 100 5 is_stmt 1 view .LVU66
 282 0138 0021     		movs	r1, #0
 283 013a 2046     		mov	r0, r4
 284 013c FFF7FEFF 		bl	crm_periph_reset
 285              	.LVL43:
 286 0140 A3E7     		b	.L1
 287              	.LVL44:
 288              	.L28:
 104:bsp/libraries/drivers/src/at32f435_437_tmr.c ****     crm_periph_reset(CRM_TMR11_PERIPH_RESET, FALSE);
 289              		.loc 1 104 5 view .LVU67
 290 0142 2B4C     		ldr	r4, .L32+92
 291 0144 0121     		movs	r1, #1
 292 0146 2046     		mov	r0, r4
 293              	.LVL45:
 104:bsp/libraries/drivers/src/at32f435_437_tmr.c ****     crm_periph_reset(CRM_TMR11_PERIPH_RESET, FALSE);
 294              		.loc 1 104 5 is_stmt 0 view .LVU68
 295 0148 FFF7FEFF 		bl	crm_periph_reset
 296              	.LVL46:
 105:bsp/libraries/drivers/src/at32f435_437_tmr.c ****   }
 297              		.loc 1 105 5 is_stmt 1 view .LVU69
ARM GAS  C:\Users\user\AppData\Local\Temp\cccs5OkE.s 			page 9


 298 014c 0021     		movs	r1, #0
 299 014e 2046     		mov	r0, r4
 300 0150 FFF7FEFF 		bl	crm_periph_reset
 301              	.LVL47:
 302 0154 99E7     		b	.L1
 303              	.LVL48:
 304              	.L29:
 109:bsp/libraries/drivers/src/at32f435_437_tmr.c ****     crm_periph_reset(CRM_TMR12_PERIPH_RESET, FALSE);
 305              		.loc 1 109 5 view .LVU70
 306 0156 274C     		ldr	r4, .L32+96
 307 0158 0121     		movs	r1, #1
 308 015a 2046     		mov	r0, r4
 309              	.LVL49:
 109:bsp/libraries/drivers/src/at32f435_437_tmr.c ****     crm_periph_reset(CRM_TMR12_PERIPH_RESET, FALSE);
 310              		.loc 1 109 5 is_stmt 0 view .LVU71
 311 015c FFF7FEFF 		bl	crm_periph_reset
 312              	.LVL50:
 110:bsp/libraries/drivers/src/at32f435_437_tmr.c ****   }
 313              		.loc 1 110 5 is_stmt 1 view .LVU72
 314 0160 0021     		movs	r1, #0
 315 0162 2046     		mov	r0, r4
 316 0164 FFF7FEFF 		bl	crm_periph_reset
 317              	.LVL51:
 318 0168 8FE7     		b	.L1
 319              	.LVL52:
 320              	.L30:
 114:bsp/libraries/drivers/src/at32f435_437_tmr.c ****     crm_periph_reset(CRM_TMR13_PERIPH_RESET, FALSE);
 321              		.loc 1 114 5 view .LVU73
 322 016a 234C     		ldr	r4, .L32+100
 323 016c 0121     		movs	r1, #1
 324 016e 2046     		mov	r0, r4
 325              	.LVL53:
 114:bsp/libraries/drivers/src/at32f435_437_tmr.c ****     crm_periph_reset(CRM_TMR13_PERIPH_RESET, FALSE);
 326              		.loc 1 114 5 is_stmt 0 view .LVU74
 327 0170 FFF7FEFF 		bl	crm_periph_reset
 328              	.LVL54:
 115:bsp/libraries/drivers/src/at32f435_437_tmr.c ****   }
 329              		.loc 1 115 5 is_stmt 1 view .LVU75
 330 0174 0021     		movs	r1, #0
 331 0176 2046     		mov	r0, r4
 332 0178 FFF7FEFF 		bl	crm_periph_reset
 333              	.LVL55:
 334 017c 85E7     		b	.L1
 335              	.LVL56:
 336              	.L31:
 119:bsp/libraries/drivers/src/at32f435_437_tmr.c ****     crm_periph_reset(CRM_TMR14_PERIPH_RESET, FALSE);
 337              		.loc 1 119 5 view .LVU76
 338 017e 1F4C     		ldr	r4, .L32+104
 339 0180 0121     		movs	r1, #1
 340 0182 2046     		mov	r0, r4
 341              	.LVL57:
 119:bsp/libraries/drivers/src/at32f435_437_tmr.c ****     crm_periph_reset(CRM_TMR14_PERIPH_RESET, FALSE);
 342              		.loc 1 119 5 is_stmt 0 view .LVU77
 343 0184 FFF7FEFF 		bl	crm_periph_reset
 344              	.LVL58:
 120:bsp/libraries/drivers/src/at32f435_437_tmr.c ****   }
 345              		.loc 1 120 5 is_stmt 1 view .LVU78
ARM GAS  C:\Users\user\AppData\Local\Temp\cccs5OkE.s 			page 10


 346 0188 0021     		movs	r1, #0
 347 018a 2046     		mov	r0, r4
 348 018c FFF7FEFF 		bl	crm_periph_reset
 349              	.LVL59:
 350 0190 7BE7     		b	.L1
 351              	.L33:
 352 0192 00BF     		.align	2
 353              	.L32:
 354 0194 00000140 		.word	1073807360
 355 0198 00040040 		.word	1073742848
 356 019c 00080040 		.word	1073743872
 357 01a0 000C0040 		.word	1073744896
 358 01a4 00100040 		.word	1073745920
 359 01a8 00140040 		.word	1073746944
 360 01ac 00040140 		.word	1073808384
 361 01b0 00400140 		.word	1073823744
 362 01b4 00440140 		.word	1073824768
 363 01b8 00480140 		.word	1073825792
 364 01bc 00180040 		.word	1073747968
 365 01c0 001C0040 		.word	1073748992
 366 01c4 00200040 		.word	1073750016
 367 01c8 004C0140 		.word	1073826816
 368 01cc 14002400 		.word	2359316
 369 01d0 01002000 		.word	2097153
 370 01d4 02002000 		.word	2097154
 371 01d8 03002000 		.word	2097155
 372 01dc 04002000 		.word	2097156
 373 01e0 05002000 		.word	2097157
 374 01e4 01002400 		.word	2359297
 375 01e8 10002400 		.word	2359312
 376 01ec 11002400 		.word	2359313
 377 01f0 12002400 		.word	2359314
 378 01f4 06002000 		.word	2097158
 379 01f8 07002000 		.word	2097159
 380 01fc 08002000 		.word	2097160
 381              		.cfi_endproc
 382              	.LFE133:
 384              		.section	.text.tmr_counter_enable,"ax",%progbits
 385              		.align	1
 386              		.global	tmr_counter_enable
 387              		.syntax unified
 388              		.thumb
 389              		.thumb_func
 391              	tmr_counter_enable:
 392              	.LVL60:
 393              	.LFB134:
 128:bsp/libraries/drivers/src/at32f435_437_tmr.c **** 
 129:bsp/libraries/drivers/src/at32f435_437_tmr.c **** /**
 130:bsp/libraries/drivers/src/at32f435_437_tmr.c ****   * @brief  enable or disable tmr counter
 131:bsp/libraries/drivers/src/at32f435_437_tmr.c ****   * @param  tmr_x: select the tmr peripheral.
 132:bsp/libraries/drivers/src/at32f435_437_tmr.c ****   *         this parameter can be one of the following values:
 133:bsp/libraries/drivers/src/at32f435_437_tmr.c ****   *         TMR1, TMR2, TMR3, TMR4, TMR5, TMR6, TMR7, TMR8,
 134:bsp/libraries/drivers/src/at32f435_437_tmr.c ****   *         TMR9, TMR10, TMR11, TMR12, TMR13, TMR14, TMR20
 135:bsp/libraries/drivers/src/at32f435_437_tmr.c ****   * @param  new_state (TRUE or FALSE)
 136:bsp/libraries/drivers/src/at32f435_437_tmr.c ****   * @retval none
 137:bsp/libraries/drivers/src/at32f435_437_tmr.c ****   */
 138:bsp/libraries/drivers/src/at32f435_437_tmr.c **** void tmr_counter_enable(tmr_type *tmr_x, confirm_state new_state)
ARM GAS  C:\Users\user\AppData\Local\Temp\cccs5OkE.s 			page 11


 139:bsp/libraries/drivers/src/at32f435_437_tmr.c **** {
 394              		.loc 1 139 1 view -0
 395              		.cfi_startproc
 396              		@ args = 0, pretend = 0, frame = 0
 397              		@ frame_needed = 0, uses_anonymous_args = 0
 398              		@ link register save eliminated.
 140:bsp/libraries/drivers/src/at32f435_437_tmr.c ****   /* tmr counter enable  */
 141:bsp/libraries/drivers/src/at32f435_437_tmr.c ****   tmr_x->ctrl1_bit.tmren = new_state;
 399              		.loc 1 141 3 view .LVU80
 400              		.loc 1 141 26 is_stmt 0 view .LVU81
 401 0000 0368     		ldr	r3, [r0]
 402 0002 61F30003 		bfi	r3, r1, #0, #1
 403 0006 0360     		str	r3, [r0]
 142:bsp/libraries/drivers/src/at32f435_437_tmr.c **** }
 404              		.loc 1 142 1 view .LVU82
 405 0008 7047     		bx	lr
 406              		.cfi_endproc
 407              	.LFE134:
 409              		.section	.text.tmr_output_default_para_init,"ax",%progbits
 410              		.align	1
 411              		.global	tmr_output_default_para_init
 412              		.syntax unified
 413              		.thumb
 414              		.thumb_func
 416              	tmr_output_default_para_init:
 417              	.LVL61:
 418              	.LFB135:
 143:bsp/libraries/drivers/src/at32f435_437_tmr.c **** 
 144:bsp/libraries/drivers/src/at32f435_437_tmr.c **** /**
 145:bsp/libraries/drivers/src/at32f435_437_tmr.c ****   * @brief  init tmr output default para
 146:bsp/libraries/drivers/src/at32f435_437_tmr.c ****   * @param  tmr_output_struct
 147:bsp/libraries/drivers/src/at32f435_437_tmr.c ****   *         - to the structure of tmr_output_config_type
 148:bsp/libraries/drivers/src/at32f435_437_tmr.c ****   * @retval none
 149:bsp/libraries/drivers/src/at32f435_437_tmr.c ****   */
 150:bsp/libraries/drivers/src/at32f435_437_tmr.c **** void tmr_output_default_para_init(tmr_output_config_type *tmr_output_struct)
 151:bsp/libraries/drivers/src/at32f435_437_tmr.c **** {
 419              		.loc 1 151 1 is_stmt 1 view -0
 420              		.cfi_startproc
 421              		@ args = 0, pretend = 0, frame = 0
 422              		@ frame_needed = 0, uses_anonymous_args = 0
 423              		@ link register save eliminated.
 152:bsp/libraries/drivers/src/at32f435_437_tmr.c ****   tmr_output_struct->oc_mode = TMR_OUTPUT_CONTROL_OFF;
 424              		.loc 1 152 3 view .LVU84
 425              		.loc 1 152 30 is_stmt 0 view .LVU85
 426 0000 0023     		movs	r3, #0
 427 0002 0370     		strb	r3, [r0]
 153:bsp/libraries/drivers/src/at32f435_437_tmr.c ****   tmr_output_struct->oc_idle_state = FALSE;
 428              		.loc 1 153 3 is_stmt 1 view .LVU86
 429              		.loc 1 153 36 is_stmt 0 view .LVU87
 430 0004 4370     		strb	r3, [r0, #1]
 154:bsp/libraries/drivers/src/at32f435_437_tmr.c ****   tmr_output_struct->occ_idle_state = FALSE;
 431              		.loc 1 154 3 is_stmt 1 view .LVU88
 432              		.loc 1 154 37 is_stmt 0 view .LVU89
 433 0006 8370     		strb	r3, [r0, #2]
 155:bsp/libraries/drivers/src/at32f435_437_tmr.c ****   tmr_output_struct->oc_polarity = TMR_OUTPUT_ACTIVE_HIGH;
 434              		.loc 1 155 3 is_stmt 1 view .LVU90
 435              		.loc 1 155 34 is_stmt 0 view .LVU91
ARM GAS  C:\Users\user\AppData\Local\Temp\cccs5OkE.s 			page 12


 436 0008 C370     		strb	r3, [r0, #3]
 156:bsp/libraries/drivers/src/at32f435_437_tmr.c ****   tmr_output_struct->occ_polarity = TMR_OUTPUT_ACTIVE_HIGH;
 437              		.loc 1 156 3 is_stmt 1 view .LVU92
 438              		.loc 1 156 35 is_stmt 0 view .LVU93
 439 000a 0371     		strb	r3, [r0, #4]
 157:bsp/libraries/drivers/src/at32f435_437_tmr.c ****   tmr_output_struct->oc_output_state = FALSE;
 440              		.loc 1 157 3 is_stmt 1 view .LVU94
 441              		.loc 1 157 38 is_stmt 0 view .LVU95
 442 000c 4371     		strb	r3, [r0, #5]
 158:bsp/libraries/drivers/src/at32f435_437_tmr.c ****   tmr_output_struct->occ_output_state = FALSE;
 443              		.loc 1 158 3 is_stmt 1 view .LVU96
 444              		.loc 1 158 39 is_stmt 0 view .LVU97
 445 000e 8371     		strb	r3, [r0, #6]
 159:bsp/libraries/drivers/src/at32f435_437_tmr.c **** }
 446              		.loc 1 159 1 view .LVU98
 447 0010 7047     		bx	lr
 448              		.cfi_endproc
 449              	.LFE135:
 451              		.section	.text.tmr_input_default_para_init,"ax",%progbits
 452              		.align	1
 453              		.global	tmr_input_default_para_init
 454              		.syntax unified
 455              		.thumb
 456              		.thumb_func
 458              	tmr_input_default_para_init:
 459              	.LVL62:
 460              	.LFB136:
 160:bsp/libraries/drivers/src/at32f435_437_tmr.c **** 
 161:bsp/libraries/drivers/src/at32f435_437_tmr.c **** /**
 162:bsp/libraries/drivers/src/at32f435_437_tmr.c ****   * @brief  init tmr input default para
 163:bsp/libraries/drivers/src/at32f435_437_tmr.c ****   * @param  tmr_input_struct
 164:bsp/libraries/drivers/src/at32f435_437_tmr.c ****   *         - to the structure of tmr_input_config_type
 165:bsp/libraries/drivers/src/at32f435_437_tmr.c ****   * @retval none
 166:bsp/libraries/drivers/src/at32f435_437_tmr.c ****   */
 167:bsp/libraries/drivers/src/at32f435_437_tmr.c **** void tmr_input_default_para_init(tmr_input_config_type *tmr_input_struct)
 168:bsp/libraries/drivers/src/at32f435_437_tmr.c **** {
 461              		.loc 1 168 1 is_stmt 1 view -0
 462              		.cfi_startproc
 463              		@ args = 0, pretend = 0, frame = 0
 464              		@ frame_needed = 0, uses_anonymous_args = 0
 465              		@ link register save eliminated.
 169:bsp/libraries/drivers/src/at32f435_437_tmr.c ****   tmr_input_struct->input_channel_select = TMR_SELECT_CHANNEL_1;
 466              		.loc 1 169 3 view .LVU100
 467              		.loc 1 169 42 is_stmt 0 view .LVU101
 468 0000 0023     		movs	r3, #0
 469 0002 0370     		strb	r3, [r0]
 170:bsp/libraries/drivers/src/at32f435_437_tmr.c ****   tmr_input_struct->input_polarity_select = TMR_INPUT_RISING_EDGE;
 470              		.loc 1 170 3 is_stmt 1 view .LVU102
 471              		.loc 1 170 43 is_stmt 0 view .LVU103
 472 0004 4370     		strb	r3, [r0, #1]
 171:bsp/libraries/drivers/src/at32f435_437_tmr.c ****   tmr_input_struct->input_mapped_select = TMR_CC_CHANNEL_MAPPED_DIRECT;
 473              		.loc 1 171 3 is_stmt 1 view .LVU104
 474              		.loc 1 171 41 is_stmt 0 view .LVU105
 475 0006 0122     		movs	r2, #1
 476 0008 8270     		strb	r2, [r0, #2]
 172:bsp/libraries/drivers/src/at32f435_437_tmr.c ****   tmr_input_struct->input_filter_value = 0x0;
 477              		.loc 1 172 3 is_stmt 1 view .LVU106
ARM GAS  C:\Users\user\AppData\Local\Temp\cccs5OkE.s 			page 13


 478              		.loc 1 172 40 is_stmt 0 view .LVU107
 479 000a C370     		strb	r3, [r0, #3]
 173:bsp/libraries/drivers/src/at32f435_437_tmr.c **** }
 480              		.loc 1 173 1 view .LVU108
 481 000c 7047     		bx	lr
 482              		.cfi_endproc
 483              	.LFE136:
 485              		.section	.text.tmr_brkdt_default_para_init,"ax",%progbits
 486              		.align	1
 487              		.global	tmr_brkdt_default_para_init
 488              		.syntax unified
 489              		.thumb
 490              		.thumb_func
 492              	tmr_brkdt_default_para_init:
 493              	.LVL63:
 494              	.LFB137:
 174:bsp/libraries/drivers/src/at32f435_437_tmr.c **** 
 175:bsp/libraries/drivers/src/at32f435_437_tmr.c **** /**
 176:bsp/libraries/drivers/src/at32f435_437_tmr.c ****   * @brief  init tmr brkdt default para
 177:bsp/libraries/drivers/src/at32f435_437_tmr.c ****   * @param  tmr_brkdt_struct
 178:bsp/libraries/drivers/src/at32f435_437_tmr.c ****   *         - to the structure of tmr_brkdt_config_type
 179:bsp/libraries/drivers/src/at32f435_437_tmr.c ****   * @retval none
 180:bsp/libraries/drivers/src/at32f435_437_tmr.c ****   */
 181:bsp/libraries/drivers/src/at32f435_437_tmr.c **** void tmr_brkdt_default_para_init(tmr_brkdt_config_type *tmr_brkdt_struct)
 182:bsp/libraries/drivers/src/at32f435_437_tmr.c **** {
 495              		.loc 1 182 1 is_stmt 1 view -0
 496              		.cfi_startproc
 497              		@ args = 0, pretend = 0, frame = 0
 498              		@ frame_needed = 0, uses_anonymous_args = 0
 499              		@ link register save eliminated.
 183:bsp/libraries/drivers/src/at32f435_437_tmr.c ****   tmr_brkdt_struct->deadtime = 0x0;
 500              		.loc 1 183 3 view .LVU110
 501              		.loc 1 183 30 is_stmt 0 view .LVU111
 502 0000 0023     		movs	r3, #0
 503 0002 0370     		strb	r3, [r0]
 184:bsp/libraries/drivers/src/at32f435_437_tmr.c ****   tmr_brkdt_struct->brk_polarity = TMR_BRK_INPUT_ACTIVE_LOW;
 504              		.loc 1 184 3 is_stmt 1 view .LVU112
 505              		.loc 1 184 34 is_stmt 0 view .LVU113
 506 0004 4370     		strb	r3, [r0, #1]
 185:bsp/libraries/drivers/src/at32f435_437_tmr.c ****   tmr_brkdt_struct->wp_level = TMR_WP_OFF;
 507              		.loc 1 185 3 is_stmt 1 view .LVU114
 508              		.loc 1 185 30 is_stmt 0 view .LVU115
 509 0006 8370     		strb	r3, [r0, #2]
 186:bsp/libraries/drivers/src/at32f435_437_tmr.c ****   tmr_brkdt_struct->auto_output_enable = FALSE ;
 510              		.loc 1 186 3 is_stmt 1 view .LVU116
 511              		.loc 1 186 40 is_stmt 0 view .LVU117
 512 0008 C370     		strb	r3, [r0, #3]
 187:bsp/libraries/drivers/src/at32f435_437_tmr.c ****   tmr_brkdt_struct->fcsoen_state = FALSE ;
 513              		.loc 1 187 3 is_stmt 1 view .LVU118
 514              		.loc 1 187 34 is_stmt 0 view .LVU119
 515 000a 0371     		strb	r3, [r0, #4]
 188:bsp/libraries/drivers/src/at32f435_437_tmr.c ****   tmr_brkdt_struct->fcsodis_state = FALSE ;
 516              		.loc 1 188 3 is_stmt 1 view .LVU120
 517              		.loc 1 188 35 is_stmt 0 view .LVU121
 518 000c 4371     		strb	r3, [r0, #5]
 189:bsp/libraries/drivers/src/at32f435_437_tmr.c ****   tmr_brkdt_struct->brk_enable = FALSE ;
 519              		.loc 1 189 3 is_stmt 1 view .LVU122
ARM GAS  C:\Users\user\AppData\Local\Temp\cccs5OkE.s 			page 14


 520              		.loc 1 189 32 is_stmt 0 view .LVU123
 521 000e 8371     		strb	r3, [r0, #6]
 190:bsp/libraries/drivers/src/at32f435_437_tmr.c **** }
 522              		.loc 1 190 1 view .LVU124
 523 0010 7047     		bx	lr
 524              		.cfi_endproc
 525              	.LFE137:
 527              		.section	.text.tmr_base_init,"ax",%progbits
 528              		.align	1
 529              		.global	tmr_base_init
 530              		.syntax unified
 531              		.thumb
 532              		.thumb_func
 534              	tmr_base_init:
 535              	.LVL64:
 536              	.LFB138:
 191:bsp/libraries/drivers/src/at32f435_437_tmr.c **** 
 192:bsp/libraries/drivers/src/at32f435_437_tmr.c **** /**
 193:bsp/libraries/drivers/src/at32f435_437_tmr.c ****   * @brief  init tmr base
 194:bsp/libraries/drivers/src/at32f435_437_tmr.c ****   * @param  tmr_x: select the tmr peripheral.
 195:bsp/libraries/drivers/src/at32f435_437_tmr.c ****   *         this parameter can be one of the following values:
 196:bsp/libraries/drivers/src/at32f435_437_tmr.c ****   *         TMR1, TMR2, TMR3, TMR4, TMR5, TMR6, TMR7, TMR8,
 197:bsp/libraries/drivers/src/at32f435_437_tmr.c ****   *         TMR9, TMR10, TMR11, TMR12, TMR13, TMR14, TMR20
 198:bsp/libraries/drivers/src/at32f435_437_tmr.c ****   * @param  tmr_pr (for 16 bit tmr 0x0000~0xFFFF,
 199:bsp/libraries/drivers/src/at32f435_437_tmr.c ****   *                  for 32 bit tmr 0x0000_0000~0xFFFF_FFFF)
 200:bsp/libraries/drivers/src/at32f435_437_tmr.c ****   * @param  tmr_div (timer div value:0x0000~0xFFFF)
 201:bsp/libraries/drivers/src/at32f435_437_tmr.c ****   * @retval none
 202:bsp/libraries/drivers/src/at32f435_437_tmr.c ****   */
 203:bsp/libraries/drivers/src/at32f435_437_tmr.c **** void tmr_base_init(tmr_type* tmr_x, uint32_t tmr_pr, uint32_t tmr_div)
 204:bsp/libraries/drivers/src/at32f435_437_tmr.c **** {
 537              		.loc 1 204 1 is_stmt 1 view -0
 538              		.cfi_startproc
 539              		@ args = 0, pretend = 0, frame = 0
 540              		@ frame_needed = 0, uses_anonymous_args = 0
 541              		@ link register save eliminated.
 205:bsp/libraries/drivers/src/at32f435_437_tmr.c ****   /* set the pr value */
 206:bsp/libraries/drivers/src/at32f435_437_tmr.c ****   tmr_x->pr = tmr_pr;
 542              		.loc 1 206 3 view .LVU126
 543              		.loc 1 206 13 is_stmt 0 view .LVU127
 544 0000 C162     		str	r1, [r0, #44]
 207:bsp/libraries/drivers/src/at32f435_437_tmr.c **** 
 208:bsp/libraries/drivers/src/at32f435_437_tmr.c ****   /* set the div value */
 209:bsp/libraries/drivers/src/at32f435_437_tmr.c ****   tmr_x->div = tmr_div;
 545              		.loc 1 209 3 is_stmt 1 view .LVU128
 546              		.loc 1 209 14 is_stmt 0 view .LVU129
 547 0002 8262     		str	r2, [r0, #40]
 210:bsp/libraries/drivers/src/at32f435_437_tmr.c **** 
 211:bsp/libraries/drivers/src/at32f435_437_tmr.c ****   /* trigger the overflow event to immediately reload pr value and div value */
 212:bsp/libraries/drivers/src/at32f435_437_tmr.c ****   tmr_x->swevt_bit.ovfswtr = TRUE;
 548              		.loc 1 212 3 is_stmt 1 view .LVU130
 549              		.loc 1 212 28 is_stmt 0 view .LVU131
 550 0004 4369     		ldr	r3, [r0, #20]
 551 0006 43F00103 		orr	r3, r3, #1
 552 000a 4361     		str	r3, [r0, #20]
 213:bsp/libraries/drivers/src/at32f435_437_tmr.c **** }
 553              		.loc 1 213 1 view .LVU132
 554 000c 7047     		bx	lr
ARM GAS  C:\Users\user\AppData\Local\Temp\cccs5OkE.s 			page 15


 555              		.cfi_endproc
 556              	.LFE138:
 558              		.section	.text.tmr_clock_source_div_set,"ax",%progbits
 559              		.align	1
 560              		.global	tmr_clock_source_div_set
 561              		.syntax unified
 562              		.thumb
 563              		.thumb_func
 565              	tmr_clock_source_div_set:
 566              	.LVL65:
 567              	.LFB139:
 214:bsp/libraries/drivers/src/at32f435_437_tmr.c **** 
 215:bsp/libraries/drivers/src/at32f435_437_tmr.c **** /**
 216:bsp/libraries/drivers/src/at32f435_437_tmr.c ****   * @brief  set tmr clock source division
 217:bsp/libraries/drivers/src/at32f435_437_tmr.c ****   * @param  tmr_x: select the tmr peripheral.
 218:bsp/libraries/drivers/src/at32f435_437_tmr.c ****   *         this parameter can be one of the following values:
 219:bsp/libraries/drivers/src/at32f435_437_tmr.c ****   *         TMR1, TMR2, TMR3, TMR4, TMR5, TMR8, TMR9, TMR10,
 220:bsp/libraries/drivers/src/at32f435_437_tmr.c ****   *         TMR11, TMR12, TMR13, TMR14, TMR20
 221:bsp/libraries/drivers/src/at32f435_437_tmr.c ****   * @param  tmr_clock_div
 222:bsp/libraries/drivers/src/at32f435_437_tmr.c ****   *         this parameter can be one of the following values:
 223:bsp/libraries/drivers/src/at32f435_437_tmr.c ****   *         - TMR_CLOCK_DIV1
 224:bsp/libraries/drivers/src/at32f435_437_tmr.c ****   *         - TMR_CLOCK_DIV2
 225:bsp/libraries/drivers/src/at32f435_437_tmr.c ****   *         - TMR_CLOCK_DIV4
 226:bsp/libraries/drivers/src/at32f435_437_tmr.c ****   * @retval none
 227:bsp/libraries/drivers/src/at32f435_437_tmr.c ****   */
 228:bsp/libraries/drivers/src/at32f435_437_tmr.c **** void tmr_clock_source_div_set(tmr_type *tmr_x, tmr_clock_division_type tmr_clock_div)
 229:bsp/libraries/drivers/src/at32f435_437_tmr.c **** {
 568              		.loc 1 229 1 is_stmt 1 view -0
 569              		.cfi_startproc
 570              		@ args = 0, pretend = 0, frame = 0
 571              		@ frame_needed = 0, uses_anonymous_args = 0
 572              		@ link register save eliminated.
 230:bsp/libraries/drivers/src/at32f435_437_tmr.c ****   /* set tmr clock source division */
 231:bsp/libraries/drivers/src/at32f435_437_tmr.c ****   tmr_x->ctrl1_bit.clkdiv = tmr_clock_div;
 573              		.loc 1 231 3 view .LVU134
 574              		.loc 1 231 27 is_stmt 0 view .LVU135
 575 0000 0368     		ldr	r3, [r0]
 576 0002 61F30923 		bfi	r3, r1, #8, #2
 577 0006 0360     		str	r3, [r0]
 232:bsp/libraries/drivers/src/at32f435_437_tmr.c **** }
 578              		.loc 1 232 1 view .LVU136
 579 0008 7047     		bx	lr
 580              		.cfi_endproc
 581              	.LFE139:
 583              		.section	.text.tmr_cnt_dir_set,"ax",%progbits
 584              		.align	1
 585              		.global	tmr_cnt_dir_set
 586              		.syntax unified
 587              		.thumb
 588              		.thumb_func
 590              	tmr_cnt_dir_set:
 591              	.LVL66:
 592              	.LFB140:
 233:bsp/libraries/drivers/src/at32f435_437_tmr.c **** 
 234:bsp/libraries/drivers/src/at32f435_437_tmr.c **** /**
 235:bsp/libraries/drivers/src/at32f435_437_tmr.c ****   * @brief  set tmr counter count direction
 236:bsp/libraries/drivers/src/at32f435_437_tmr.c ****   * @param  tmr_x: select the tmr peripheral.
ARM GAS  C:\Users\user\AppData\Local\Temp\cccs5OkE.s 			page 16


 237:bsp/libraries/drivers/src/at32f435_437_tmr.c ****   *         this parameter can be one of the following values:
 238:bsp/libraries/drivers/src/at32f435_437_tmr.c ****   *         TMR1, TMR2, TMR3, TMR4, TMR5, TMR8, TMR9, TMR10,
 239:bsp/libraries/drivers/src/at32f435_437_tmr.c ****   *         TMR11, TMR12, TMR13, TMR14, TMR20
 240:bsp/libraries/drivers/src/at32f435_437_tmr.c ****   * @param  tmr_cnt_dir
 241:bsp/libraries/drivers/src/at32f435_437_tmr.c ****   *         this parameter can be one of the following values:
 242:bsp/libraries/drivers/src/at32f435_437_tmr.c ****   *         - TMR_COUNT_UP
 243:bsp/libraries/drivers/src/at32f435_437_tmr.c ****   *         - TMR_COUNT_DOWN
 244:bsp/libraries/drivers/src/at32f435_437_tmr.c ****   *         - TMR_COUNT_TWO_WAY_1
 245:bsp/libraries/drivers/src/at32f435_437_tmr.c ****   *         - TMR_COUNT_TWO_WAY_2
 246:bsp/libraries/drivers/src/at32f435_437_tmr.c ****   *         - TMR_COUNT_TWO_WAY_3
 247:bsp/libraries/drivers/src/at32f435_437_tmr.c ****   * @retval none
 248:bsp/libraries/drivers/src/at32f435_437_tmr.c ****   */
 249:bsp/libraries/drivers/src/at32f435_437_tmr.c **** void tmr_cnt_dir_set(tmr_type *tmr_x, tmr_count_mode_type tmr_cnt_dir)
 250:bsp/libraries/drivers/src/at32f435_437_tmr.c **** {
 593              		.loc 1 250 1 is_stmt 1 view -0
 594              		.cfi_startproc
 595              		@ args = 0, pretend = 0, frame = 0
 596              		@ frame_needed = 0, uses_anonymous_args = 0
 597              		@ link register save eliminated.
 251:bsp/libraries/drivers/src/at32f435_437_tmr.c ****   /* set the cnt direct */
 252:bsp/libraries/drivers/src/at32f435_437_tmr.c ****   tmr_x->ctrl1_bit.cnt_dir = tmr_cnt_dir;
 598              		.loc 1 252 3 view .LVU138
 599              		.loc 1 252 28 is_stmt 0 view .LVU139
 600 0000 0368     		ldr	r3, [r0]
 601 0002 61F30613 		bfi	r3, r1, #4, #3
 602 0006 0360     		str	r3, [r0]
 253:bsp/libraries/drivers/src/at32f435_437_tmr.c **** }
 603              		.loc 1 253 1 view .LVU140
 604 0008 7047     		bx	lr
 605              		.cfi_endproc
 606              	.LFE140:
 608              		.section	.text.tmr_repetition_counter_set,"ax",%progbits
 609              		.align	1
 610              		.global	tmr_repetition_counter_set
 611              		.syntax unified
 612              		.thumb
 613              		.thumb_func
 615              	tmr_repetition_counter_set:
 616              	.LVL67:
 617              	.LFB141:
 254:bsp/libraries/drivers/src/at32f435_437_tmr.c **** 
 255:bsp/libraries/drivers/src/at32f435_437_tmr.c **** /**
 256:bsp/libraries/drivers/src/at32f435_437_tmr.c ****   * @brief  set the repetition counter register(rpr) value
 257:bsp/libraries/drivers/src/at32f435_437_tmr.c ****   * @param  tmr_x: select the tmr peripheral.
 258:bsp/libraries/drivers/src/at32f435_437_tmr.c ****   *         this parameter can be one of the following values:
 259:bsp/libraries/drivers/src/at32f435_437_tmr.c ****   *         TMR1, TMR8, TMR20
 260:bsp/libraries/drivers/src/at32f435_437_tmr.c ****   * @param  tmr_rpr_value (0x0000~0xFFFF)
 261:bsp/libraries/drivers/src/at32f435_437_tmr.c ****   * @retval none
 262:bsp/libraries/drivers/src/at32f435_437_tmr.c ****   */
 263:bsp/libraries/drivers/src/at32f435_437_tmr.c **** void tmr_repetition_counter_set(tmr_type *tmr_x, uint16_t tmr_rpr_value)
 264:bsp/libraries/drivers/src/at32f435_437_tmr.c **** {
 618              		.loc 1 264 1 is_stmt 1 view -0
 619              		.cfi_startproc
 620              		@ args = 0, pretend = 0, frame = 0
 621              		@ frame_needed = 0, uses_anonymous_args = 0
 622              		@ link register save eliminated.
 265:bsp/libraries/drivers/src/at32f435_437_tmr.c ****   /* set the repetition counter value */
ARM GAS  C:\Users\user\AppData\Local\Temp\cccs5OkE.s 			page 17


 266:bsp/libraries/drivers/src/at32f435_437_tmr.c ****   tmr_x->rpr_bit.rpr = tmr_rpr_value;
 623              		.loc 1 266 3 view .LVU142
 624              		.loc 1 266 22 is_stmt 0 view .LVU143
 625 0000 036B     		ldr	r3, [r0, #48]
 626              	.LVL68:
 627              		.loc 1 266 22 view .LVU144
 628 0002 61F30F03 		bfi	r3, r1, #0, #16
 629 0006 0363     		str	r3, [r0, #48]
 267:bsp/libraries/drivers/src/at32f435_437_tmr.c **** }
 630              		.loc 1 267 1 view .LVU145
 631 0008 7047     		bx	lr
 632              		.cfi_endproc
 633              	.LFE141:
 635              		.section	.text.tmr_counter_value_set,"ax",%progbits
 636              		.align	1
 637              		.global	tmr_counter_value_set
 638              		.syntax unified
 639              		.thumb
 640              		.thumb_func
 642              	tmr_counter_value_set:
 643              	.LVL69:
 644              	.LFB142:
 268:bsp/libraries/drivers/src/at32f435_437_tmr.c **** 
 269:bsp/libraries/drivers/src/at32f435_437_tmr.c **** /**
 270:bsp/libraries/drivers/src/at32f435_437_tmr.c ****   * @brief  set tmr counter value
 271:bsp/libraries/drivers/src/at32f435_437_tmr.c ****   * @param  tmr_x: select the tmr peripheral.
 272:bsp/libraries/drivers/src/at32f435_437_tmr.c ****   *         this parameter can be one of the following values:
 273:bsp/libraries/drivers/src/at32f435_437_tmr.c ****   *         TMR1, TMR2, TMR3, TMR4, TMR5, TMR6, TMR7, TMR8,
 274:bsp/libraries/drivers/src/at32f435_437_tmr.c ****   *         TMR9, TMR10, TMR11, TMR12, TMR13, TMR14, TMR20
 275:bsp/libraries/drivers/src/at32f435_437_tmr.c ****   * @param  tmr_cnt_value (for 16 bit tmr 0x0000~0xFFFF,
 276:bsp/libraries/drivers/src/at32f435_437_tmr.c ****   *                        for 32 bit tmr 0x0000_0000~0xFFFF_FFFF)
 277:bsp/libraries/drivers/src/at32f435_437_tmr.c ****   * @retval none
 278:bsp/libraries/drivers/src/at32f435_437_tmr.c ****   */
 279:bsp/libraries/drivers/src/at32f435_437_tmr.c **** void tmr_counter_value_set(tmr_type *tmr_x, uint32_t tmr_cnt_value)
 280:bsp/libraries/drivers/src/at32f435_437_tmr.c **** {
 645              		.loc 1 280 1 is_stmt 1 view -0
 646              		.cfi_startproc
 647              		@ args = 0, pretend = 0, frame = 0
 648              		@ frame_needed = 0, uses_anonymous_args = 0
 649              		@ link register save eliminated.
 281:bsp/libraries/drivers/src/at32f435_437_tmr.c ****   /* set the tmr counter value */
 282:bsp/libraries/drivers/src/at32f435_437_tmr.c ****   tmr_x->cval = tmr_cnt_value;
 650              		.loc 1 282 3 view .LVU147
 651              		.loc 1 282 15 is_stmt 0 view .LVU148
 652 0000 4162     		str	r1, [r0, #36]
 283:bsp/libraries/drivers/src/at32f435_437_tmr.c **** }
 653              		.loc 1 283 1 view .LVU149
 654 0002 7047     		bx	lr
 655              		.cfi_endproc
 656              	.LFE142:
 658              		.section	.text.tmr_counter_value_get,"ax",%progbits
 659              		.align	1
 660              		.global	tmr_counter_value_get
 661              		.syntax unified
 662              		.thumb
 663              		.thumb_func
 665              	tmr_counter_value_get:
ARM GAS  C:\Users\user\AppData\Local\Temp\cccs5OkE.s 			page 18


 666              	.LVL70:
 667              	.LFB143:
 284:bsp/libraries/drivers/src/at32f435_437_tmr.c **** 
 285:bsp/libraries/drivers/src/at32f435_437_tmr.c **** /**
 286:bsp/libraries/drivers/src/at32f435_437_tmr.c ****   * @brief  get tmr counter value
 287:bsp/libraries/drivers/src/at32f435_437_tmr.c ****   * @param  tmr_x: select the tmr peripheral.
 288:bsp/libraries/drivers/src/at32f435_437_tmr.c ****   *         this parameter can be one of the following values:
 289:bsp/libraries/drivers/src/at32f435_437_tmr.c ****   *         TMR1, TMR2, TMR3, TMR4, TMR5, TMR6, TMR7, TMR8,
 290:bsp/libraries/drivers/src/at32f435_437_tmr.c ****   *         TMR9, TMR10, TMR11, TMR12, TMR13, TMR14, TMR20
 291:bsp/libraries/drivers/src/at32f435_437_tmr.c ****   * @retval tmr counter value
 292:bsp/libraries/drivers/src/at32f435_437_tmr.c ****   */
 293:bsp/libraries/drivers/src/at32f435_437_tmr.c **** uint32_t tmr_counter_value_get(tmr_type *tmr_x)
 294:bsp/libraries/drivers/src/at32f435_437_tmr.c **** {
 668              		.loc 1 294 1 is_stmt 1 view -0
 669              		.cfi_startproc
 670              		@ args = 0, pretend = 0, frame = 0
 671              		@ frame_needed = 0, uses_anonymous_args = 0
 672              		@ link register save eliminated.
 295:bsp/libraries/drivers/src/at32f435_437_tmr.c ****   return tmr_x->cval;
 673              		.loc 1 295 3 view .LVU151
 674              		.loc 1 295 15 is_stmt 0 view .LVU152
 675 0000 406A     		ldr	r0, [r0, #36]
 676              	.LVL71:
 296:bsp/libraries/drivers/src/at32f435_437_tmr.c **** }
 677              		.loc 1 296 1 view .LVU153
 678 0002 7047     		bx	lr
 679              		.cfi_endproc
 680              	.LFE143:
 682              		.section	.text.tmr_div_value_set,"ax",%progbits
 683              		.align	1
 684              		.global	tmr_div_value_set
 685              		.syntax unified
 686              		.thumb
 687              		.thumb_func
 689              	tmr_div_value_set:
 690              	.LVL72:
 691              	.LFB144:
 297:bsp/libraries/drivers/src/at32f435_437_tmr.c **** 
 298:bsp/libraries/drivers/src/at32f435_437_tmr.c **** /**
 299:bsp/libraries/drivers/src/at32f435_437_tmr.c ****   * @brief  set tmr div value
 300:bsp/libraries/drivers/src/at32f435_437_tmr.c ****   * @param  tmr_x: select the tmr peripheral.
 301:bsp/libraries/drivers/src/at32f435_437_tmr.c ****   *         this parameter can be one of the following values:
 302:bsp/libraries/drivers/src/at32f435_437_tmr.c ****   *         TMR1, TMR2, TMR3, TMR4, TMR5, TMR6, TMR7, TMR8,
 303:bsp/libraries/drivers/src/at32f435_437_tmr.c ****   *         TMR9, TMR10, TMR11, TMR12, TMR13, TMR14, TMR20
 304:bsp/libraries/drivers/src/at32f435_437_tmr.c ****   * @param  tmr_div_value (0x0000~0xFFFF)
 305:bsp/libraries/drivers/src/at32f435_437_tmr.c ****   * @retval none
 306:bsp/libraries/drivers/src/at32f435_437_tmr.c ****   */
 307:bsp/libraries/drivers/src/at32f435_437_tmr.c **** void tmr_div_value_set(tmr_type *tmr_x, uint32_t tmr_div_value)
 308:bsp/libraries/drivers/src/at32f435_437_tmr.c **** {
 692              		.loc 1 308 1 is_stmt 1 view -0
 693              		.cfi_startproc
 694              		@ args = 0, pretend = 0, frame = 0
 695              		@ frame_needed = 0, uses_anonymous_args = 0
 696              		@ link register save eliminated.
 309:bsp/libraries/drivers/src/at32f435_437_tmr.c ****   /* set the tmr div value */
 310:bsp/libraries/drivers/src/at32f435_437_tmr.c ****   tmr_x->div = tmr_div_value;
 697              		.loc 1 310 3 view .LVU155
ARM GAS  C:\Users\user\AppData\Local\Temp\cccs5OkE.s 			page 19


 698              		.loc 1 310 14 is_stmt 0 view .LVU156
 699 0000 8162     		str	r1, [r0, #40]
 311:bsp/libraries/drivers/src/at32f435_437_tmr.c **** }
 700              		.loc 1 311 1 view .LVU157
 701 0002 7047     		bx	lr
 702              		.cfi_endproc
 703              	.LFE144:
 705              		.section	.text.tmr_div_value_get,"ax",%progbits
 706              		.align	1
 707              		.global	tmr_div_value_get
 708              		.syntax unified
 709              		.thumb
 710              		.thumb_func
 712              	tmr_div_value_get:
 713              	.LVL73:
 714              	.LFB145:
 312:bsp/libraries/drivers/src/at32f435_437_tmr.c **** 
 313:bsp/libraries/drivers/src/at32f435_437_tmr.c **** /**
 314:bsp/libraries/drivers/src/at32f435_437_tmr.c ****   * @brief  get tmr div value
 315:bsp/libraries/drivers/src/at32f435_437_tmr.c ****   * @param  tmr_x: select the tmr peripheral.
 316:bsp/libraries/drivers/src/at32f435_437_tmr.c ****   *         this parameter can be one of the following values:
 317:bsp/libraries/drivers/src/at32f435_437_tmr.c ****   *         TMR1, TMR2, TMR3, TMR4, TMR5, TMR6, TMR7, TMR8,
 318:bsp/libraries/drivers/src/at32f435_437_tmr.c ****   *         TMR9, TMR10, TMR11, TMR12, TMR13, TMR14, TMR20
 319:bsp/libraries/drivers/src/at32f435_437_tmr.c ****   * @retval tmr div value
 320:bsp/libraries/drivers/src/at32f435_437_tmr.c ****   */
 321:bsp/libraries/drivers/src/at32f435_437_tmr.c **** uint32_t tmr_div_value_get(tmr_type *tmr_x)
 322:bsp/libraries/drivers/src/at32f435_437_tmr.c **** {
 715              		.loc 1 322 1 is_stmt 1 view -0
 716              		.cfi_startproc
 717              		@ args = 0, pretend = 0, frame = 0
 718              		@ frame_needed = 0, uses_anonymous_args = 0
 719              		@ link register save eliminated.
 323:bsp/libraries/drivers/src/at32f435_437_tmr.c ****   return tmr_x->div;
 720              		.loc 1 323 3 view .LVU159
 721              		.loc 1 323 15 is_stmt 0 view .LVU160
 722 0000 806A     		ldr	r0, [r0, #40]
 723              	.LVL74:
 324:bsp/libraries/drivers/src/at32f435_437_tmr.c **** }
 724              		.loc 1 324 1 view .LVU161
 725 0002 7047     		bx	lr
 726              		.cfi_endproc
 727              	.LFE145:
 729              		.section	.text.tmr_output_channel_config,"ax",%progbits
 730              		.align	1
 731              		.global	tmr_output_channel_config
 732              		.syntax unified
 733              		.thumb
 734              		.thumb_func
 736              	tmr_output_channel_config:
 737              	.LVL75:
 738              	.LFB146:
 325:bsp/libraries/drivers/src/at32f435_437_tmr.c **** 
 326:bsp/libraries/drivers/src/at32f435_437_tmr.c **** /**
 327:bsp/libraries/drivers/src/at32f435_437_tmr.c ****   * @brief  config tmr output channel
 328:bsp/libraries/drivers/src/at32f435_437_tmr.c ****   * @param  tmr_x: select the tmr peripheral.
 329:bsp/libraries/drivers/src/at32f435_437_tmr.c ****   *         this parameter can be one of the following values:
 330:bsp/libraries/drivers/src/at32f435_437_tmr.c ****   *         TMR1, TMR2, TMR3, TMR4, TMR5, TMR8, TMR9, TMR10,
ARM GAS  C:\Users\user\AppData\Local\Temp\cccs5OkE.s 			page 20


 331:bsp/libraries/drivers/src/at32f435_437_tmr.c ****   *         TMR11, TMR12, TMR13, TMR14, TMR20
 332:bsp/libraries/drivers/src/at32f435_437_tmr.c ****   * @param  tmr_channel
 333:bsp/libraries/drivers/src/at32f435_437_tmr.c ****   *         this parameter can be one of the following values:
 334:bsp/libraries/drivers/src/at32f435_437_tmr.c ****   *         - TMR_SELECT_CHANNEL_1
 335:bsp/libraries/drivers/src/at32f435_437_tmr.c ****   *         - TMR_SELECT_CHANNEL_2
 336:bsp/libraries/drivers/src/at32f435_437_tmr.c ****   *         - TMR_SELECT_CHANNEL_3
 337:bsp/libraries/drivers/src/at32f435_437_tmr.c ****   *         - TMR_SELECT_CHANNEL_4
 338:bsp/libraries/drivers/src/at32f435_437_tmr.c ****   *         - TMR_SELECT_CHANNEL_5
 339:bsp/libraries/drivers/src/at32f435_437_tmr.c ****   * @param  tmr_output_struct
 340:bsp/libraries/drivers/src/at32f435_437_tmr.c ****   *         - to the structure of tmr_output_config_type
 341:bsp/libraries/drivers/src/at32f435_437_tmr.c ****   * @retval none
 342:bsp/libraries/drivers/src/at32f435_437_tmr.c ****   */
 343:bsp/libraries/drivers/src/at32f435_437_tmr.c **** void tmr_output_channel_config(tmr_type *tmr_x, tmr_channel_select_type tmr_channel, \
 344:bsp/libraries/drivers/src/at32f435_437_tmr.c ****                                tmr_output_config_type *tmr_output_struct)
 345:bsp/libraries/drivers/src/at32f435_437_tmr.c **** {
 739              		.loc 1 345 1 is_stmt 1 view -0
 740              		.cfi_startproc
 741              		@ args = 0, pretend = 0, frame = 0
 742              		@ frame_needed = 0, uses_anonymous_args = 0
 743              		.loc 1 345 1 is_stmt 0 view .LVU163
 744 0000 F0B5     		push	{r4, r5, r6, r7, lr}
 745              	.LCFI1:
 746              		.cfi_def_cfa_offset 20
 747              		.cfi_offset 4, -20
 748              		.cfi_offset 5, -16
 749              		.cfi_offset 6, -12
 750              		.cfi_offset 7, -8
 751              		.cfi_offset 14, -4
 346:bsp/libraries/drivers/src/at32f435_437_tmr.c ****   uint16_t channel_index = 0, channel_c_index = 0, channel = 0, chx_offset, chcx_offset;
 752              		.loc 1 346 3 is_stmt 1 view .LVU164
 753              	.LVL76:
 347:bsp/libraries/drivers/src/at32f435_437_tmr.c **** 
 348:bsp/libraries/drivers/src/at32f435_437_tmr.c ****   chx_offset = (8 + tmr_channel);
 754              		.loc 1 348 3 view .LVU165
 755              		.loc 1 348 19 is_stmt 0 view .LVU166
 756 0002 1FFA81FC 		uxth	ip, r1
 757              		.loc 1 348 14 view .LVU167
 758 0006 01F1080E 		add	lr, r1, #8
 759              	.LVL77:
 349:bsp/libraries/drivers/src/at32f435_437_tmr.c ****   chcx_offset = (9 + tmr_channel);
 760              		.loc 1 349 3 is_stmt 1 view .LVU168
 761              		.loc 1 349 15 is_stmt 0 view .LVU169
 762 000a 01F10906 		add	r6, r1, #9
 763              	.LVL78:
 350:bsp/libraries/drivers/src/at32f435_437_tmr.c ****   
 351:bsp/libraries/drivers/src/at32f435_437_tmr.c ****   /* get channel idle state bit position in ctrl2 register */
 352:bsp/libraries/drivers/src/at32f435_437_tmr.c ****   channel_index = (uint16_t)(tmr_output_struct->oc_idle_state << chx_offset);
 764              		.loc 1 352 3 is_stmt 1 view .LVU170
 765              		.loc 1 352 47 is_stmt 0 view .LVU171
 766 000e 5478     		ldrb	r4, [r2, #1]	@ zero_extendqisi2
 767              		.loc 1 352 63 view .LVU172
 768 0010 04FA0EF7 		lsl	r7, r4, lr
 769              	.LVL79:
 353:bsp/libraries/drivers/src/at32f435_437_tmr.c **** 
 354:bsp/libraries/drivers/src/at32f435_437_tmr.c ****   /* get channel complementary idle state bit position in ctrl2 register */
 355:bsp/libraries/drivers/src/at32f435_437_tmr.c ****   channel_c_index = (uint16_t)(tmr_output_struct->occ_idle_state << chcx_offset);
 770              		.loc 1 355 3 is_stmt 1 view .LVU173
ARM GAS  C:\Users\user\AppData\Local\Temp\cccs5OkE.s 			page 21


 771              		.loc 1 355 49 is_stmt 0 view .LVU174
 772 0014 9478     		ldrb	r4, [r2, #2]	@ zero_extendqisi2
 773              		.loc 1 355 66 view .LVU175
 774 0016 B440     		lsls	r4, r4, r6
 775              	.LVL80:
 356:bsp/libraries/drivers/src/at32f435_437_tmr.c **** 
 357:bsp/libraries/drivers/src/at32f435_437_tmr.c ****   /* set output channel complementary idle state */
 358:bsp/libraries/drivers/src/at32f435_437_tmr.c ****   tmr_x->ctrl2 &= ~(1<<chcx_offset);
 776              		.loc 1 358 3 is_stmt 1 view .LVU176
 777              		.loc 1 358 16 is_stmt 0 view .LVU177
 778 0018 4368     		ldr	r3, [r0, #4]
 779              		.loc 1 358 22 view .LVU178
 780 001a 0125     		movs	r5, #1
 781 001c 05FA06F6 		lsl	r6, r5, r6
 782              	.LVL81:
 783              		.loc 1 358 16 view .LVU179
 784 0020 23EA0606 		bic	r6, r3, r6
 785 0024 4660     		str	r6, [r0, #4]
 359:bsp/libraries/drivers/src/at32f435_437_tmr.c ****   tmr_x->ctrl2 |= channel_c_index;
 786              		.loc 1 359 3 is_stmt 1 view .LVU180
 787              		.loc 1 359 16 is_stmt 0 view .LVU181
 788 0026 4368     		ldr	r3, [r0, #4]
 789 0028 A4B2     		uxth	r4, r4
 790              		.loc 1 359 16 view .LVU182
 791 002a 1C43     		orrs	r4, r4, r3
 792              	.LVL82:
 793              		.loc 1 359 16 view .LVU183
 794 002c 4460     		str	r4, [r0, #4]
 360:bsp/libraries/drivers/src/at32f435_437_tmr.c **** 
 361:bsp/libraries/drivers/src/at32f435_437_tmr.c ****   /* set output channel idle state */
 362:bsp/libraries/drivers/src/at32f435_437_tmr.c ****   tmr_x->ctrl2 &= ~(1<<chx_offset);
 795              		.loc 1 362 3 is_stmt 1 view .LVU184
 796              		.loc 1 362 16 is_stmt 0 view .LVU185
 797 002e 4368     		ldr	r3, [r0, #4]
 798              		.loc 1 362 22 view .LVU186
 799 0030 05FA0EF5 		lsl	r5, r5, lr
 800              		.loc 1 362 16 view .LVU187
 801 0034 23EA0505 		bic	r5, r3, r5
 802 0038 4560     		str	r5, [r0, #4]
 363:bsp/libraries/drivers/src/at32f435_437_tmr.c ****   tmr_x->ctrl2 |= channel_index;
 803              		.loc 1 363 3 is_stmt 1 view .LVU188
 804              		.loc 1 363 16 is_stmt 0 view .LVU189
 805 003a 4368     		ldr	r3, [r0, #4]
 806 003c BCB2     		uxth	r4, r7
 807 003e 1C43     		orrs	r4, r4, r3
 808 0040 4460     		str	r4, [r0, #4]
 364:bsp/libraries/drivers/src/at32f435_437_tmr.c **** 
 365:bsp/libraries/drivers/src/at32f435_437_tmr.c ****   /* set channel output mode */
 366:bsp/libraries/drivers/src/at32f435_437_tmr.c ****   channel = tmr_channel;
 809              		.loc 1 366 3 is_stmt 1 view .LVU190
 810              	.LVL83:
 367:bsp/libraries/drivers/src/at32f435_437_tmr.c **** 
 368:bsp/libraries/drivers/src/at32f435_437_tmr.c ****   switch(channel)
 811              		.loc 1 368 3 view .LVU191
 812 0042 0729     		cmp	r1, #7
 813 0044 0AD8     		bhi	.L47
 814 0046 DFE801F0 		tbb	[pc, r1]
ARM GAS  C:\Users\user\AppData\Local\Temp\cccs5OkE.s 			page 22


 815              	.L49:
 816 004a 04       		.byte	(.L53-.L49)/2
 817 004b 09       		.byte	(.L47-.L49)/2
 818 004c 43       		.byte	(.L52-.L49)/2
 819 004d 09       		.byte	(.L47-.L49)/2
 820 004e 49       		.byte	(.L51-.L49)/2
 821 004f 09       		.byte	(.L47-.L49)/2
 822 0050 4F       		.byte	(.L50-.L49)/2
 823 0051 55       		.byte	(.L48-.L49)/2
 824              		.p2align 1
 825              	.L53:
 369:bsp/libraries/drivers/src/at32f435_437_tmr.c ****   {
 370:bsp/libraries/drivers/src/at32f435_437_tmr.c ****     case TMR_SELECT_CHANNEL_1:
 371:bsp/libraries/drivers/src/at32f435_437_tmr.c ****       tmr_x->cm1_output_bit.c1octrl = tmr_output_struct->oc_mode;
 826              		.loc 1 371 7 view .LVU192
 827              		.loc 1 371 56 is_stmt 0 view .LVU193
 828 0052 1478     		ldrb	r4, [r2]	@ zero_extendqisi2
 829              		.loc 1 371 37 view .LVU194
 830 0054 8369     		ldr	r3, [r0, #24]
 831 0056 64F30613 		bfi	r3, r4, #4, #3
 832 005a 8361     		str	r3, [r0, #24]
 372:bsp/libraries/drivers/src/at32f435_437_tmr.c ****       break;
 833              		.loc 1 372 7 is_stmt 1 view .LVU195
 834              	.L47:
 373:bsp/libraries/drivers/src/at32f435_437_tmr.c **** 
 374:bsp/libraries/drivers/src/at32f435_437_tmr.c ****     case TMR_SELECT_CHANNEL_2:
 375:bsp/libraries/drivers/src/at32f435_437_tmr.c ****       tmr_x->cm1_output_bit.c2octrl = tmr_output_struct->oc_mode;
 376:bsp/libraries/drivers/src/at32f435_437_tmr.c ****       break;
 377:bsp/libraries/drivers/src/at32f435_437_tmr.c **** 
 378:bsp/libraries/drivers/src/at32f435_437_tmr.c ****     case TMR_SELECT_CHANNEL_3:
 379:bsp/libraries/drivers/src/at32f435_437_tmr.c ****       tmr_x->cm2_output_bit.c3octrl = tmr_output_struct->oc_mode;
 380:bsp/libraries/drivers/src/at32f435_437_tmr.c ****       break;
 381:bsp/libraries/drivers/src/at32f435_437_tmr.c **** 
 382:bsp/libraries/drivers/src/at32f435_437_tmr.c ****     case TMR_SELECT_CHANNEL_4:
 383:bsp/libraries/drivers/src/at32f435_437_tmr.c ****       tmr_x->cm2_output_bit.c4octrl = tmr_output_struct->oc_mode;
 384:bsp/libraries/drivers/src/at32f435_437_tmr.c ****       break;
 385:bsp/libraries/drivers/src/at32f435_437_tmr.c **** 
 386:bsp/libraries/drivers/src/at32f435_437_tmr.c ****     case TMR_SELECT_CHANNEL_5:
 387:bsp/libraries/drivers/src/at32f435_437_tmr.c ****       tmr_x->cm3_output_bit.c5octrl = tmr_output_struct->oc_mode;
 388:bsp/libraries/drivers/src/at32f435_437_tmr.c ****       break;
 389:bsp/libraries/drivers/src/at32f435_437_tmr.c **** 
 390:bsp/libraries/drivers/src/at32f435_437_tmr.c ****     default:
 391:bsp/libraries/drivers/src/at32f435_437_tmr.c ****       break;
 392:bsp/libraries/drivers/src/at32f435_437_tmr.c ****   }
 393:bsp/libraries/drivers/src/at32f435_437_tmr.c **** 
 394:bsp/libraries/drivers/src/at32f435_437_tmr.c ****   chx_offset = ((tmr_channel * 2) + 1);
 835              		.loc 1 394 3 view .LVU196
 836              		.loc 1 394 35 is_stmt 0 view .LVU197
 837 005c 4FEA4C0C 		lsl	ip, ip, #1
 838              	.LVL84:
 839              		.loc 1 394 14 view .LVU198
 840 0060 0CF10106 		add	r6, ip, #1
 841              	.LVL85:
 395:bsp/libraries/drivers/src/at32f435_437_tmr.c ****   chcx_offset = ((tmr_channel * 2) + 3);
 842              		.loc 1 395 3 is_stmt 1 view .LVU199
 843              		.loc 1 395 15 is_stmt 0 view .LVU200
 844 0064 0CF10305 		add	r5, ip, #3
ARM GAS  C:\Users\user\AppData\Local\Temp\cccs5OkE.s 			page 23


 845              	.LVL86:
 396:bsp/libraries/drivers/src/at32f435_437_tmr.c **** 
 397:bsp/libraries/drivers/src/at32f435_437_tmr.c ****   /* get channel polarity bit position in cctrl register */
 398:bsp/libraries/drivers/src/at32f435_437_tmr.c ****   channel_index = (uint16_t)(tmr_output_struct->oc_polarity << chx_offset);
 846              		.loc 1 398 3 is_stmt 1 view .LVU201
 847              		.loc 1 398 47 is_stmt 0 view .LVU202
 848 0068 D378     		ldrb	r3, [r2, #3]	@ zero_extendqisi2
 849              		.loc 1 398 61 view .LVU203
 850 006a B340     		lsls	r3, r3, r6
 851              	.LVL87:
 399:bsp/libraries/drivers/src/at32f435_437_tmr.c **** 
 400:bsp/libraries/drivers/src/at32f435_437_tmr.c ****   /* get channel complementary polarity bit position in cctrl register */
 401:bsp/libraries/drivers/src/at32f435_437_tmr.c ****   channel_c_index = (uint16_t)(tmr_output_struct->occ_polarity << chcx_offset);
 852              		.loc 1 401 3 is_stmt 1 view .LVU204
 853              		.loc 1 401 49 is_stmt 0 view .LVU205
 854 006c 1479     		ldrb	r4, [r2, #4]	@ zero_extendqisi2
 855              		.loc 1 401 64 view .LVU206
 856 006e AC40     		lsls	r4, r4, r5
 857              	.LVL88:
 402:bsp/libraries/drivers/src/at32f435_437_tmr.c **** 
 403:bsp/libraries/drivers/src/at32f435_437_tmr.c ****   /* set output channel complementary polarity */
 404:bsp/libraries/drivers/src/at32f435_437_tmr.c ****   tmr_x->cctrl &= ~(1<<chcx_offset);
 858              		.loc 1 404 3 is_stmt 1 view .LVU207
 859              		.loc 1 404 22 is_stmt 0 view .LVU208
 860 0070 4FF0010E 		mov	lr, #1
 861 0074 0EFA05F7 		lsl	r7, lr, r5
 862              		.loc 1 404 16 view .LVU209
 863 0078 056A     		ldr	r5, [r0, #32]
 864              	.LVL89:
 865              		.loc 1 404 16 view .LVU210
 866 007a 25EA0705 		bic	r5, r5, r7
 867 007e 0562     		str	r5, [r0, #32]
 405:bsp/libraries/drivers/src/at32f435_437_tmr.c ****   tmr_x->cctrl |= channel_c_index;
 868              		.loc 1 405 3 is_stmt 1 view .LVU211
 869              		.loc 1 405 16 is_stmt 0 view .LVU212
 870 0080 A4B2     		uxth	r4, r4
 871              		.loc 1 405 16 view .LVU213
 872 0082 2C43     		orrs	r4, r4, r5
 873              	.LVL90:
 874              		.loc 1 405 16 view .LVU214
 875 0084 0462     		str	r4, [r0, #32]
 406:bsp/libraries/drivers/src/at32f435_437_tmr.c **** 
 407:bsp/libraries/drivers/src/at32f435_437_tmr.c ****   /* set output channel polarity */
 408:bsp/libraries/drivers/src/at32f435_437_tmr.c ****   tmr_x->cctrl &= ~(1<<chx_offset);
 876              		.loc 1 408 3 is_stmt 1 view .LVU215
 877              		.loc 1 408 22 is_stmt 0 view .LVU216
 878 0086 0EFA06F6 		lsl	r6, lr, r6
 879              	.LVL91:
 880              		.loc 1 408 16 view .LVU217
 881 008a 24EA0604 		bic	r4, r4, r6
 882 008e 0462     		str	r4, [r0, #32]
 409:bsp/libraries/drivers/src/at32f435_437_tmr.c ****   tmr_x->cctrl |= channel_index;
 883              		.loc 1 409 3 is_stmt 1 view .LVU218
 884              		.loc 1 409 16 is_stmt 0 view .LVU219
 885 0090 9BB2     		uxth	r3, r3
 886              		.loc 1 409 16 view .LVU220
 887 0092 1C43     		orrs	r4, r4, r3
ARM GAS  C:\Users\user\AppData\Local\Temp\cccs5OkE.s 			page 24


 888 0094 0462     		str	r4, [r0, #32]
 410:bsp/libraries/drivers/src/at32f435_437_tmr.c **** 
 411:bsp/libraries/drivers/src/at32f435_437_tmr.c ****   chx_offset = (tmr_channel * 2);
 889              		.loc 1 411 3 is_stmt 1 view .LVU221
 890              	.LVL92:
 412:bsp/libraries/drivers/src/at32f435_437_tmr.c ****   chcx_offset = ((tmr_channel * 2) + 2);
 891              		.loc 1 412 3 view .LVU222
 892              		.loc 1 412 36 is_stmt 0 view .LVU223
 893 0096 01EB0E05 		add	r5, r1, lr
 894              	.LVL93:
 413:bsp/libraries/drivers/src/at32f435_437_tmr.c **** 
 414:bsp/libraries/drivers/src/at32f435_437_tmr.c ****   /* get channel enable bit position in cctrl register */
 415:bsp/libraries/drivers/src/at32f435_437_tmr.c ****   channel_index = (uint16_t)(tmr_output_struct->oc_output_state << (tmr_channel * 2));
 895              		.loc 1 415 3 is_stmt 1 view .LVU224
 896              		.loc 1 415 47 is_stmt 0 view .LVU225
 897 009a 5379     		ldrb	r3, [r2, #5]	@ zero_extendqisi2
 898              	.LVL94:
 899              		.loc 1 415 81 view .LVU226
 900 009c 01FA0EF1 		lsl	r1, r1, lr
 901              	.LVL95:
 902              		.loc 1 415 65 view .LVU227
 903 00a0 03FA01F1 		lsl	r1, r3, r1
 904              	.LVL96:
 416:bsp/libraries/drivers/src/at32f435_437_tmr.c **** 
 417:bsp/libraries/drivers/src/at32f435_437_tmr.c ****   /* get channel complementary enable bit position in cctrl register */
 418:bsp/libraries/drivers/src/at32f435_437_tmr.c ****   channel_c_index = (uint16_t)(tmr_output_struct->occ_output_state << ((tmr_channel * 2) + 2));
 905              		.loc 1 418 3 is_stmt 1 view .LVU228
 906              		.loc 1 418 49 is_stmt 0 view .LVU229
 907 00a4 9379     		ldrb	r3, [r2, #6]	@ zero_extendqisi2
 908              		.loc 1 418 90 view .LVU230
 909 00a6 05FA0EF2 		lsl	r2, r5, lr
 910              	.LVL97:
 911              		.loc 1 418 68 view .LVU231
 912 00aa 9340     		lsls	r3, r3, r2
 913              	.LVL98:
 419:bsp/libraries/drivers/src/at32f435_437_tmr.c **** 
 420:bsp/libraries/drivers/src/at32f435_437_tmr.c ****   /* set output channel complementary enable bit */
 421:bsp/libraries/drivers/src/at32f435_437_tmr.c ****   tmr_x->cctrl &= ~(1<<chcx_offset);
 914              		.loc 1 421 3 is_stmt 1 view .LVU232
 915              		.loc 1 421 22 is_stmt 0 view .LVU233
 916 00ac 92B2     		uxth	r2, r2
 917 00ae 0EFA02F2 		lsl	r2, lr, r2
 918              		.loc 1 421 16 view .LVU234
 919 00b2 24EA0202 		bic	r2, r4, r2
 920 00b6 0262     		str	r2, [r0, #32]
 422:bsp/libraries/drivers/src/at32f435_437_tmr.c ****   tmr_x->cctrl |= channel_c_index;
 921              		.loc 1 422 3 is_stmt 1 view .LVU235
 922              		.loc 1 422 16 is_stmt 0 view .LVU236
 923 00b8 9BB2     		uxth	r3, r3
 924              		.loc 1 422 16 view .LVU237
 925 00ba 1343     		orrs	r3, r3, r2
 926              	.LVL99:
 927              		.loc 1 422 16 view .LVU238
 928 00bc 0362     		str	r3, [r0, #32]
 423:bsp/libraries/drivers/src/at32f435_437_tmr.c **** 
 424:bsp/libraries/drivers/src/at32f435_437_tmr.c ****   /* set output channel enable bit */
 425:bsp/libraries/drivers/src/at32f435_437_tmr.c ****   tmr_x->cctrl &= ~(1<<chx_offset);
ARM GAS  C:\Users\user\AppData\Local\Temp\cccs5OkE.s 			page 25


 929              		.loc 1 425 3 is_stmt 1 view .LVU239
 930              		.loc 1 425 22 is_stmt 0 view .LVU240
 931 00be 0EFA0CFC 		lsl	ip, lr, ip
 932              	.LVL100:
 933              		.loc 1 425 16 view .LVU241
 934 00c2 23EA0C03 		bic	r3, r3, ip
 935 00c6 0362     		str	r3, [r0, #32]
 426:bsp/libraries/drivers/src/at32f435_437_tmr.c ****   tmr_x->cctrl |= channel_index;
 936              		.loc 1 426 3 is_stmt 1 view .LVU242
 937              		.loc 1 426 16 is_stmt 0 view .LVU243
 938 00c8 89B2     		uxth	r1, r1
 939              		.loc 1 426 16 view .LVU244
 940 00ca 0B43     		orrs	r3, r3, r1
 941 00cc 0362     		str	r3, [r0, #32]
 427:bsp/libraries/drivers/src/at32f435_437_tmr.c **** }
 942              		.loc 1 427 1 view .LVU245
 943 00ce F0BD     		pop	{r4, r5, r6, r7, pc}
 944              	.LVL101:
 945              	.L52:
 375:bsp/libraries/drivers/src/at32f435_437_tmr.c ****       break;
 946              		.loc 1 375 7 is_stmt 1 view .LVU246
 375:bsp/libraries/drivers/src/at32f435_437_tmr.c ****       break;
 947              		.loc 1 375 56 is_stmt 0 view .LVU247
 948 00d0 1478     		ldrb	r4, [r2]	@ zero_extendqisi2
 375:bsp/libraries/drivers/src/at32f435_437_tmr.c ****       break;
 949              		.loc 1 375 37 view .LVU248
 950 00d2 8369     		ldr	r3, [r0, #24]
 951 00d4 64F30E33 		bfi	r3, r4, #12, #3
 952 00d8 8361     		str	r3, [r0, #24]
 376:bsp/libraries/drivers/src/at32f435_437_tmr.c **** 
 953              		.loc 1 376 7 is_stmt 1 view .LVU249
 954 00da BFE7     		b	.L47
 955              	.L51:
 379:bsp/libraries/drivers/src/at32f435_437_tmr.c ****       break;
 956              		.loc 1 379 7 view .LVU250
 379:bsp/libraries/drivers/src/at32f435_437_tmr.c ****       break;
 957              		.loc 1 379 56 is_stmt 0 view .LVU251
 958 00dc 1478     		ldrb	r4, [r2]	@ zero_extendqisi2
 379:bsp/libraries/drivers/src/at32f435_437_tmr.c ****       break;
 959              		.loc 1 379 37 view .LVU252
 960 00de C369     		ldr	r3, [r0, #28]
 961 00e0 64F30613 		bfi	r3, r4, #4, #3
 962 00e4 C361     		str	r3, [r0, #28]
 380:bsp/libraries/drivers/src/at32f435_437_tmr.c **** 
 963              		.loc 1 380 7 is_stmt 1 view .LVU253
 964 00e6 B9E7     		b	.L47
 965              	.L50:
 383:bsp/libraries/drivers/src/at32f435_437_tmr.c ****       break;
 966              		.loc 1 383 7 view .LVU254
 383:bsp/libraries/drivers/src/at32f435_437_tmr.c ****       break;
 967              		.loc 1 383 56 is_stmt 0 view .LVU255
 968 00e8 1478     		ldrb	r4, [r2]	@ zero_extendqisi2
 383:bsp/libraries/drivers/src/at32f435_437_tmr.c ****       break;
 969              		.loc 1 383 37 view .LVU256
 970 00ea C369     		ldr	r3, [r0, #28]
 971 00ec 64F30E33 		bfi	r3, r4, #12, #3
 972 00f0 C361     		str	r3, [r0, #28]
ARM GAS  C:\Users\user\AppData\Local\Temp\cccs5OkE.s 			page 26


 384:bsp/libraries/drivers/src/at32f435_437_tmr.c **** 
 973              		.loc 1 384 7 is_stmt 1 view .LVU257
 974 00f2 B3E7     		b	.L47
 975              	.L48:
 387:bsp/libraries/drivers/src/at32f435_437_tmr.c ****       break;
 976              		.loc 1 387 7 view .LVU258
 387:bsp/libraries/drivers/src/at32f435_437_tmr.c ****       break;
 977              		.loc 1 387 56 is_stmt 0 view .LVU259
 978 00f4 1478     		ldrb	r4, [r2]	@ zero_extendqisi2
 387:bsp/libraries/drivers/src/at32f435_437_tmr.c ****       break;
 979              		.loc 1 387 37 view .LVU260
 980 00f6 036F     		ldr	r3, [r0, #112]
 981 00f8 64F30613 		bfi	r3, r4, #4, #3
 982 00fc 0367     		str	r3, [r0, #112]
 388:bsp/libraries/drivers/src/at32f435_437_tmr.c **** 
 983              		.loc 1 388 7 is_stmt 1 view .LVU261
 984 00fe ADE7     		b	.L47
 985              		.cfi_endproc
 986              	.LFE146:
 988              		.section	.text.tmr_output_channel_mode_select,"ax",%progbits
 989              		.align	1
 990              		.global	tmr_output_channel_mode_select
 991              		.syntax unified
 992              		.thumb
 993              		.thumb_func
 995              	tmr_output_channel_mode_select:
 996              	.LVL102:
 997              	.LFB147:
 428:bsp/libraries/drivers/src/at32f435_437_tmr.c **** 
 429:bsp/libraries/drivers/src/at32f435_437_tmr.c **** /**
 430:bsp/libraries/drivers/src/at32f435_437_tmr.c ****   * @brief  select tmr output channel mode
 431:bsp/libraries/drivers/src/at32f435_437_tmr.c ****   * @param  tmr_x: select the tmr peripheral.
 432:bsp/libraries/drivers/src/at32f435_437_tmr.c ****   *         this parameter can be one of the following values:
 433:bsp/libraries/drivers/src/at32f435_437_tmr.c ****   *         TMR1, TMR2, TMR3, TMR4, TMR5, TMR8, TMR9, TMR10,
 434:bsp/libraries/drivers/src/at32f435_437_tmr.c ****   *         TMR11, TMR12, TMR13, TMR14, TMR20
 435:bsp/libraries/drivers/src/at32f435_437_tmr.c ****   * @param  tmr_channel
 436:bsp/libraries/drivers/src/at32f435_437_tmr.c ****   *         this parameter can be one of the following values:
 437:bsp/libraries/drivers/src/at32f435_437_tmr.c ****   *         - TMR_SELECT_CHANNEL_1
 438:bsp/libraries/drivers/src/at32f435_437_tmr.c ****   *         - TMR_SELECT_CHANNEL_2
 439:bsp/libraries/drivers/src/at32f435_437_tmr.c ****   *         - TMR_SELECT_CHANNEL_3
 440:bsp/libraries/drivers/src/at32f435_437_tmr.c ****   *         - TMR_SELECT_CHANNEL_4
 441:bsp/libraries/drivers/src/at32f435_437_tmr.c ****   *         - TMR_SELECT_CHANNEL_5
 442:bsp/libraries/drivers/src/at32f435_437_tmr.c ****   * @param  oc_mode
 443:bsp/libraries/drivers/src/at32f435_437_tmr.c ****   *         this parameter can be one of the following values:
 444:bsp/libraries/drivers/src/at32f435_437_tmr.c ****   *         - TMR_OUTPUT_CONTROL_OFF
 445:bsp/libraries/drivers/src/at32f435_437_tmr.c ****   *         - TMR_OUTPUT_CONTROL_HIGH
 446:bsp/libraries/drivers/src/at32f435_437_tmr.c ****   *         - TMR_OUTPUT_CONTROL_LOW
 447:bsp/libraries/drivers/src/at32f435_437_tmr.c ****   *         - TMR_OUTPUT_CONTROL_SWITCH
 448:bsp/libraries/drivers/src/at32f435_437_tmr.c ****   *         - TMR_OUTPUT_CONTROL_FORCE_HIGH
 449:bsp/libraries/drivers/src/at32f435_437_tmr.c ****   *         - TMR_OUTPUT_CONTROL_FORCE_LOW
 450:bsp/libraries/drivers/src/at32f435_437_tmr.c ****   *         - TMR_OUTPUT_CONTROL_PWM_MODE_A
 451:bsp/libraries/drivers/src/at32f435_437_tmr.c ****   *         - TMR_OUTPUT_CONTROL_PWM_MODE_B
 452:bsp/libraries/drivers/src/at32f435_437_tmr.c ****   * @retval none
 453:bsp/libraries/drivers/src/at32f435_437_tmr.c ****   */
 454:bsp/libraries/drivers/src/at32f435_437_tmr.c **** void tmr_output_channel_mode_select(tmr_type *tmr_x, tmr_channel_select_type tmr_channel, \
 455:bsp/libraries/drivers/src/at32f435_437_tmr.c ****                                     tmr_output_control_mode_type oc_mode)
 456:bsp/libraries/drivers/src/at32f435_437_tmr.c **** {
ARM GAS  C:\Users\user\AppData\Local\Temp\cccs5OkE.s 			page 27


 998              		.loc 1 456 1 view -0
 999              		.cfi_startproc
 1000              		@ args = 0, pretend = 0, frame = 0
 1001              		@ frame_needed = 0, uses_anonymous_args = 0
 1002              		@ link register save eliminated.
 457:bsp/libraries/drivers/src/at32f435_437_tmr.c ****   uint16_t channel;
 1003              		.loc 1 457 3 view .LVU263
 458:bsp/libraries/drivers/src/at32f435_437_tmr.c **** 
 459:bsp/libraries/drivers/src/at32f435_437_tmr.c ****   channel = tmr_channel;
 1004              		.loc 1 459 3 view .LVU264
 460:bsp/libraries/drivers/src/at32f435_437_tmr.c **** 
 461:bsp/libraries/drivers/src/at32f435_437_tmr.c ****   switch(channel)
 1005              		.loc 1 461 3 view .LVU265
 1006 0000 0729     		cmp	r1, #7
 1007 0002 1DD8     		bhi	.L55
 1008 0004 DFE801F0 		tbb	[pc, r1]
 1009              	.L58:
 1010 0008 04       		.byte	(.L62-.L58)/2
 1011 0009 1C       		.byte	(.L55-.L58)/2
 1012 000a 09       		.byte	(.L61-.L58)/2
 1013 000b 1C       		.byte	(.L55-.L58)/2
 1014 000c 0E       		.byte	(.L60-.L58)/2
 1015 000d 1C       		.byte	(.L55-.L58)/2
 1016 000e 13       		.byte	(.L59-.L58)/2
 1017 000f 18       		.byte	(.L57-.L58)/2
 1018              		.p2align 1
 1019              	.L62:
 462:bsp/libraries/drivers/src/at32f435_437_tmr.c ****   {
 463:bsp/libraries/drivers/src/at32f435_437_tmr.c ****     case TMR_SELECT_CHANNEL_1:
 464:bsp/libraries/drivers/src/at32f435_437_tmr.c ****       tmr_x->cm1_output_bit.c1octrl = oc_mode;
 1020              		.loc 1 464 7 view .LVU266
 1021              		.loc 1 464 37 is_stmt 0 view .LVU267
 1022 0010 8369     		ldr	r3, [r0, #24]
 1023 0012 62F30613 		bfi	r3, r2, #4, #3
 1024 0016 8361     		str	r3, [r0, #24]
 465:bsp/libraries/drivers/src/at32f435_437_tmr.c ****       break;
 1025              		.loc 1 465 7 is_stmt 1 view .LVU268
 1026 0018 7047     		bx	lr
 1027              	.L61:
 466:bsp/libraries/drivers/src/at32f435_437_tmr.c **** 
 467:bsp/libraries/drivers/src/at32f435_437_tmr.c ****     case TMR_SELECT_CHANNEL_2:
 468:bsp/libraries/drivers/src/at32f435_437_tmr.c ****       tmr_x->cm1_output_bit.c2octrl = oc_mode;
 1028              		.loc 1 468 7 view .LVU269
 1029              		.loc 1 468 37 is_stmt 0 view .LVU270
 1030 001a 8369     		ldr	r3, [r0, #24]
 1031 001c 62F30E33 		bfi	r3, r2, #12, #3
 1032 0020 8361     		str	r3, [r0, #24]
 469:bsp/libraries/drivers/src/at32f435_437_tmr.c ****       break;
 1033              		.loc 1 469 7 is_stmt 1 view .LVU271
 1034 0022 7047     		bx	lr
 1035              	.L60:
 470:bsp/libraries/drivers/src/at32f435_437_tmr.c **** 
 471:bsp/libraries/drivers/src/at32f435_437_tmr.c ****     case TMR_SELECT_CHANNEL_3:
 472:bsp/libraries/drivers/src/at32f435_437_tmr.c ****       tmr_x->cm2_output_bit.c3octrl = oc_mode;
 1036              		.loc 1 472 7 view .LVU272
 1037              		.loc 1 472 37 is_stmt 0 view .LVU273
 1038 0024 C369     		ldr	r3, [r0, #28]
ARM GAS  C:\Users\user\AppData\Local\Temp\cccs5OkE.s 			page 28


 1039 0026 62F30613 		bfi	r3, r2, #4, #3
 1040 002a C361     		str	r3, [r0, #28]
 473:bsp/libraries/drivers/src/at32f435_437_tmr.c ****       break;
 1041              		.loc 1 473 7 is_stmt 1 view .LVU274
 1042 002c 7047     		bx	lr
 1043              	.L59:
 474:bsp/libraries/drivers/src/at32f435_437_tmr.c **** 
 475:bsp/libraries/drivers/src/at32f435_437_tmr.c ****     case TMR_SELECT_CHANNEL_4:
 476:bsp/libraries/drivers/src/at32f435_437_tmr.c ****       tmr_x->cm2_output_bit.c4octrl = oc_mode;
 1044              		.loc 1 476 7 view .LVU275
 1045              		.loc 1 476 37 is_stmt 0 view .LVU276
 1046 002e C369     		ldr	r3, [r0, #28]
 1047 0030 62F30E33 		bfi	r3, r2, #12, #3
 1048 0034 C361     		str	r3, [r0, #28]
 477:bsp/libraries/drivers/src/at32f435_437_tmr.c ****       break;
 1049              		.loc 1 477 7 is_stmt 1 view .LVU277
 1050 0036 7047     		bx	lr
 1051              	.L57:
 478:bsp/libraries/drivers/src/at32f435_437_tmr.c **** 
 479:bsp/libraries/drivers/src/at32f435_437_tmr.c ****     case TMR_SELECT_CHANNEL_5:
 480:bsp/libraries/drivers/src/at32f435_437_tmr.c ****       tmr_x->cm3_output_bit.c5octrl = oc_mode;
 1052              		.loc 1 480 7 view .LVU278
 1053              		.loc 1 480 37 is_stmt 0 view .LVU279
 1054 0038 036F     		ldr	r3, [r0, #112]
 1055 003a 62F30613 		bfi	r3, r2, #4, #3
 1056 003e 0367     		str	r3, [r0, #112]
 481:bsp/libraries/drivers/src/at32f435_437_tmr.c ****       break;
 1057              		.loc 1 481 7 is_stmt 1 view .LVU280
 1058              	.L55:
 482:bsp/libraries/drivers/src/at32f435_437_tmr.c **** 
 483:bsp/libraries/drivers/src/at32f435_437_tmr.c ****     default:
 484:bsp/libraries/drivers/src/at32f435_437_tmr.c ****       break;
 485:bsp/libraries/drivers/src/at32f435_437_tmr.c ****   }
 486:bsp/libraries/drivers/src/at32f435_437_tmr.c **** }
 1059              		.loc 1 486 1 is_stmt 0 view .LVU281
 1060 0040 7047     		bx	lr
 1061              		.cfi_endproc
 1062              	.LFE147:
 1064              		.section	.text.tmr_period_value_set,"ax",%progbits
 1065              		.align	1
 1066              		.global	tmr_period_value_set
 1067              		.syntax unified
 1068              		.thumb
 1069              		.thumb_func
 1071              	tmr_period_value_set:
 1072              	.LVL103:
 1073              	.LFB148:
 487:bsp/libraries/drivers/src/at32f435_437_tmr.c **** /**
 488:bsp/libraries/drivers/src/at32f435_437_tmr.c ****   * @brief  set tmr period value
 489:bsp/libraries/drivers/src/at32f435_437_tmr.c ****   * @param  tmr_x: select the tmr peripheral.
 490:bsp/libraries/drivers/src/at32f435_437_tmr.c ****   *         this parameter can be one of the following values:
 491:bsp/libraries/drivers/src/at32f435_437_tmr.c ****   *         TMR1, TMR2, TMR3, TMR4, TMR5, TMR6, TMR7, TMR8,
 492:bsp/libraries/drivers/src/at32f435_437_tmr.c ****   *         TMR9, TMR10, TMR11, TMR12, TMR13, TMR14, TMR20
 493:bsp/libraries/drivers/src/at32f435_437_tmr.c ****   * @param  tmr_pr_value: timer period register value of counter
 494:bsp/libraries/drivers/src/at32f435_437_tmr.c ****   *                       (for 16 bit tmr 0x0000~0xFFFF,
 495:bsp/libraries/drivers/src/at32f435_437_tmr.c ****   *                       for 32 bit tmr 0x0000_0000~0xFFFF_FFFF)
 496:bsp/libraries/drivers/src/at32f435_437_tmr.c ****   * @retval none
ARM GAS  C:\Users\user\AppData\Local\Temp\cccs5OkE.s 			page 29


 497:bsp/libraries/drivers/src/at32f435_437_tmr.c ****   */
 498:bsp/libraries/drivers/src/at32f435_437_tmr.c **** void tmr_period_value_set(tmr_type *tmr_x, uint32_t tmr_pr_value)
 499:bsp/libraries/drivers/src/at32f435_437_tmr.c **** {
 1074              		.loc 1 499 1 is_stmt 1 view -0
 1075              		.cfi_startproc
 1076              		@ args = 0, pretend = 0, frame = 0
 1077              		@ frame_needed = 0, uses_anonymous_args = 0
 1078              		@ link register save eliminated.
 500:bsp/libraries/drivers/src/at32f435_437_tmr.c ****   /* set tmr period value */
 501:bsp/libraries/drivers/src/at32f435_437_tmr.c ****   tmr_x->pr = tmr_pr_value;
 1079              		.loc 1 501 3 view .LVU283
 1080              		.loc 1 501 13 is_stmt 0 view .LVU284
 1081 0000 C162     		str	r1, [r0, #44]
 502:bsp/libraries/drivers/src/at32f435_437_tmr.c **** }
 1082              		.loc 1 502 1 view .LVU285
 1083 0002 7047     		bx	lr
 1084              		.cfi_endproc
 1085              	.LFE148:
 1087              		.section	.text.tmr_period_value_get,"ax",%progbits
 1088              		.align	1
 1089              		.global	tmr_period_value_get
 1090              		.syntax unified
 1091              		.thumb
 1092              		.thumb_func
 1094              	tmr_period_value_get:
 1095              	.LVL104:
 1096              	.LFB149:
 503:bsp/libraries/drivers/src/at32f435_437_tmr.c **** 
 504:bsp/libraries/drivers/src/at32f435_437_tmr.c **** /**
 505:bsp/libraries/drivers/src/at32f435_437_tmr.c ****   * @brief  get tmr period value
 506:bsp/libraries/drivers/src/at32f435_437_tmr.c ****   * @param  tmr_x: select the tmr peripheral.
 507:bsp/libraries/drivers/src/at32f435_437_tmr.c ****   *         this parameter can be one of the following values:
 508:bsp/libraries/drivers/src/at32f435_437_tmr.c ****   *         TMR1, TMR2, TMR3, TMR4, TMR5, TMR6, TMR7, TMR8,
 509:bsp/libraries/drivers/src/at32f435_437_tmr.c ****   *         TMR9, TMR10, TMR11, TMR12, TMR13, TMR14, TMR20
 510:bsp/libraries/drivers/src/at32f435_437_tmr.c ****   * @retval timer period register value of counter
 511:bsp/libraries/drivers/src/at32f435_437_tmr.c ****   *         (for 16 bit tmr 0x0000~0xFFFF, for 32 bit tmr
 512:bsp/libraries/drivers/src/at32f435_437_tmr.c ****   *         0x0000_0000~0xFFFF_FFFF)
 513:bsp/libraries/drivers/src/at32f435_437_tmr.c ****   */
 514:bsp/libraries/drivers/src/at32f435_437_tmr.c **** uint32_t tmr_period_value_get(tmr_type *tmr_x)
 515:bsp/libraries/drivers/src/at32f435_437_tmr.c **** {
 1097              		.loc 1 515 1 is_stmt 1 view -0
 1098              		.cfi_startproc
 1099              		@ args = 0, pretend = 0, frame = 0
 1100              		@ frame_needed = 0, uses_anonymous_args = 0
 1101              		@ link register save eliminated.
 516:bsp/libraries/drivers/src/at32f435_437_tmr.c ****   return tmr_x->pr;
 1102              		.loc 1 516 3 view .LVU287
 1103              		.loc 1 516 15 is_stmt 0 view .LVU288
 1104 0000 C06A     		ldr	r0, [r0, #44]
 1105              	.LVL105:
 517:bsp/libraries/drivers/src/at32f435_437_tmr.c **** }
 1106              		.loc 1 517 1 view .LVU289
 1107 0002 7047     		bx	lr
 1108              		.cfi_endproc
 1109              	.LFE149:
 1111              		.section	.text.tmr_channel_value_set,"ax",%progbits
 1112              		.align	1
ARM GAS  C:\Users\user\AppData\Local\Temp\cccs5OkE.s 			page 30


 1113              		.global	tmr_channel_value_set
 1114              		.syntax unified
 1115              		.thumb
 1116              		.thumb_func
 1118              	tmr_channel_value_set:
 1119              	.LVL106:
 1120              	.LFB150:
 518:bsp/libraries/drivers/src/at32f435_437_tmr.c **** 
 519:bsp/libraries/drivers/src/at32f435_437_tmr.c **** /**
 520:bsp/libraries/drivers/src/at32f435_437_tmr.c ****   * @brief  set tmr channel value
 521:bsp/libraries/drivers/src/at32f435_437_tmr.c ****   * @param  tmr_x: select the tmr peripheral.
 522:bsp/libraries/drivers/src/at32f435_437_tmr.c ****   *         this parameter can be one of the following values:
 523:bsp/libraries/drivers/src/at32f435_437_tmr.c ****   *         TMR1, TMR2, TMR3, TMR4, TMR5, TMR8, TMR9, TMR10,
 524:bsp/libraries/drivers/src/at32f435_437_tmr.c ****   *         TMR11, TMR12, TMR13, TMR14, TMR20
 525:bsp/libraries/drivers/src/at32f435_437_tmr.c ****   * @param  tmr_channel
 526:bsp/libraries/drivers/src/at32f435_437_tmr.c ****   *         this parameter can be one of the following values:
 527:bsp/libraries/drivers/src/at32f435_437_tmr.c ****   *         - TMR_SELECT_CHANNEL_1
 528:bsp/libraries/drivers/src/at32f435_437_tmr.c ****   *         - TMR_SELECT_CHANNEL_2
 529:bsp/libraries/drivers/src/at32f435_437_tmr.c ****   *         - TMR_SELECT_CHANNEL_3
 530:bsp/libraries/drivers/src/at32f435_437_tmr.c ****   *         - TMR_SELECT_CHANNEL_4
 531:bsp/libraries/drivers/src/at32f435_437_tmr.c ****   *         - TMR_SELECT_CHANNEL_5
 532:bsp/libraries/drivers/src/at32f435_437_tmr.c ****   * @param  tmr_channel_value (for 16 bit tmr 0x0000~0xFFFF,
 533:bsp/libraries/drivers/src/at32f435_437_tmr.c ****   *                       for 32 bit tmr 0x0000_0000~0xFFFF_FFFF)
 534:bsp/libraries/drivers/src/at32f435_437_tmr.c ****   * @retval none
 535:bsp/libraries/drivers/src/at32f435_437_tmr.c ****   */
 536:bsp/libraries/drivers/src/at32f435_437_tmr.c **** void tmr_channel_value_set(tmr_type *tmr_x, tmr_channel_select_type tmr_channel, \
 537:bsp/libraries/drivers/src/at32f435_437_tmr.c ****                            uint32_t tmr_channel_value)
 538:bsp/libraries/drivers/src/at32f435_437_tmr.c **** {
 1121              		.loc 1 538 1 is_stmt 1 view -0
 1122              		.cfi_startproc
 1123              		@ args = 0, pretend = 0, frame = 0
 1124              		@ frame_needed = 0, uses_anonymous_args = 0
 1125              		@ link register save eliminated.
 539:bsp/libraries/drivers/src/at32f435_437_tmr.c ****   uint16_t channel;
 1126              		.loc 1 539 3 view .LVU291
 540:bsp/libraries/drivers/src/at32f435_437_tmr.c **** 
 541:bsp/libraries/drivers/src/at32f435_437_tmr.c ****   channel = tmr_channel;
 1127              		.loc 1 541 3 view .LVU292
 542:bsp/libraries/drivers/src/at32f435_437_tmr.c **** 
 543:bsp/libraries/drivers/src/at32f435_437_tmr.c ****   /* set tmr channel value */
 544:bsp/libraries/drivers/src/at32f435_437_tmr.c ****   switch(channel)
 1128              		.loc 1 544 3 view .LVU293
 1129 0000 0729     		cmp	r1, #7
 1130 0002 0ED8     		bhi	.L65
 1131 0004 DFE801F0 		tbb	[pc, r1]
 1132              	.L68:
 1133 0008 04       		.byte	(.L72-.L68)/2
 1134 0009 0D       		.byte	(.L65-.L68)/2
 1135 000a 06       		.byte	(.L71-.L68)/2
 1136 000b 0D       		.byte	(.L65-.L68)/2
 1137 000c 08       		.byte	(.L70-.L68)/2
 1138 000d 0D       		.byte	(.L65-.L68)/2
 1139 000e 0A       		.byte	(.L69-.L68)/2
 1140 000f 0C       		.byte	(.L67-.L68)/2
 1141              		.p2align 1
 1142              	.L72:
 545:bsp/libraries/drivers/src/at32f435_437_tmr.c ****   {
ARM GAS  C:\Users\user\AppData\Local\Temp\cccs5OkE.s 			page 31


 546:bsp/libraries/drivers/src/at32f435_437_tmr.c ****     case TMR_SELECT_CHANNEL_1:
 547:bsp/libraries/drivers/src/at32f435_437_tmr.c ****       tmr_x->c1dt = tmr_channel_value;
 1143              		.loc 1 547 7 view .LVU294
 1144              		.loc 1 547 19 is_stmt 0 view .LVU295
 1145 0010 4263     		str	r2, [r0, #52]
 548:bsp/libraries/drivers/src/at32f435_437_tmr.c ****       break;
 1146              		.loc 1 548 7 is_stmt 1 view .LVU296
 1147 0012 7047     		bx	lr
 1148              	.L71:
 549:bsp/libraries/drivers/src/at32f435_437_tmr.c **** 
 550:bsp/libraries/drivers/src/at32f435_437_tmr.c ****     case TMR_SELECT_CHANNEL_2:
 551:bsp/libraries/drivers/src/at32f435_437_tmr.c ****       tmr_x->c2dt = tmr_channel_value;
 1149              		.loc 1 551 7 view .LVU297
 1150              		.loc 1 551 19 is_stmt 0 view .LVU298
 1151 0014 8263     		str	r2, [r0, #56]
 552:bsp/libraries/drivers/src/at32f435_437_tmr.c ****       break;
 1152              		.loc 1 552 7 is_stmt 1 view .LVU299
 1153 0016 7047     		bx	lr
 1154              	.L70:
 553:bsp/libraries/drivers/src/at32f435_437_tmr.c **** 
 554:bsp/libraries/drivers/src/at32f435_437_tmr.c ****     case TMR_SELECT_CHANNEL_3:
 555:bsp/libraries/drivers/src/at32f435_437_tmr.c ****       tmr_x->c3dt = tmr_channel_value;
 1155              		.loc 1 555 7 view .LVU300
 1156              		.loc 1 555 19 is_stmt 0 view .LVU301
 1157 0018 C263     		str	r2, [r0, #60]
 556:bsp/libraries/drivers/src/at32f435_437_tmr.c ****       break;
 1158              		.loc 1 556 7 is_stmt 1 view .LVU302
 1159 001a 7047     		bx	lr
 1160              	.L69:
 557:bsp/libraries/drivers/src/at32f435_437_tmr.c **** 
 558:bsp/libraries/drivers/src/at32f435_437_tmr.c ****     case TMR_SELECT_CHANNEL_4:
 559:bsp/libraries/drivers/src/at32f435_437_tmr.c ****       tmr_x->c4dt = tmr_channel_value;
 1161              		.loc 1 559 7 view .LVU303
 1162              		.loc 1 559 19 is_stmt 0 view .LVU304
 1163 001c 0264     		str	r2, [r0, #64]
 560:bsp/libraries/drivers/src/at32f435_437_tmr.c ****       break;
 1164              		.loc 1 560 7 is_stmt 1 view .LVU305
 1165 001e 7047     		bx	lr
 1166              	.L67:
 561:bsp/libraries/drivers/src/at32f435_437_tmr.c **** 
 562:bsp/libraries/drivers/src/at32f435_437_tmr.c ****     case TMR_SELECT_CHANNEL_5:
 563:bsp/libraries/drivers/src/at32f435_437_tmr.c ****       tmr_x->c5dt = tmr_channel_value;
 1167              		.loc 1 563 7 view .LVU306
 1168              		.loc 1 563 19 is_stmt 0 view .LVU307
 1169 0020 4267     		str	r2, [r0, #116]
 564:bsp/libraries/drivers/src/at32f435_437_tmr.c ****       break;
 1170              		.loc 1 564 7 is_stmt 1 view .LVU308
 1171              	.L65:
 565:bsp/libraries/drivers/src/at32f435_437_tmr.c **** 
 566:bsp/libraries/drivers/src/at32f435_437_tmr.c ****     default:
 567:bsp/libraries/drivers/src/at32f435_437_tmr.c ****       break;
 568:bsp/libraries/drivers/src/at32f435_437_tmr.c ****   }
 569:bsp/libraries/drivers/src/at32f435_437_tmr.c **** }
 1172              		.loc 1 569 1 is_stmt 0 view .LVU309
 1173 0022 7047     		bx	lr
 1174              		.cfi_endproc
 1175              	.LFE150:
ARM GAS  C:\Users\user\AppData\Local\Temp\cccs5OkE.s 			page 32


 1177              		.section	.text.tmr_channel_value_get,"ax",%progbits
 1178              		.align	1
 1179              		.global	tmr_channel_value_get
 1180              		.syntax unified
 1181              		.thumb
 1182              		.thumb_func
 1184              	tmr_channel_value_get:
 1185              	.LVL107:
 1186              	.LFB151:
 570:bsp/libraries/drivers/src/at32f435_437_tmr.c **** 
 571:bsp/libraries/drivers/src/at32f435_437_tmr.c **** /**
 572:bsp/libraries/drivers/src/at32f435_437_tmr.c ****   * @brief  get tmr channel value
 573:bsp/libraries/drivers/src/at32f435_437_tmr.c ****   * @param  tmr_x: select the tmr peripheral.
 574:bsp/libraries/drivers/src/at32f435_437_tmr.c ****   *         this parameter can be one of the following values:
 575:bsp/libraries/drivers/src/at32f435_437_tmr.c ****   *         TMR1, TMR2, TMR3, TMR4, TMR5, TMR8, TMR9, TMR10,
 576:bsp/libraries/drivers/src/at32f435_437_tmr.c ****   *         TMR11, TMR12, TMR13, TMR14, TMR20
 577:bsp/libraries/drivers/src/at32f435_437_tmr.c ****   * @param  tmr_channel
 578:bsp/libraries/drivers/src/at32f435_437_tmr.c ****   *         this parameter can be one of the following values:
 579:bsp/libraries/drivers/src/at32f435_437_tmr.c ****   *         - TMR_SELECT_CHANNEL_1
 580:bsp/libraries/drivers/src/at32f435_437_tmr.c ****   *         - TMR_SELECT_CHANNEL_2
 581:bsp/libraries/drivers/src/at32f435_437_tmr.c ****   *         - TMR_SELECT_CHANNEL_3
 582:bsp/libraries/drivers/src/at32f435_437_tmr.c ****   *         - TMR_SELECT_CHANNEL_4
 583:bsp/libraries/drivers/src/at32f435_437_tmr.c ****   *         - TMR_SELECT_CHANNEL_5
 584:bsp/libraries/drivers/src/at32f435_437_tmr.c ****   * @retval tmr channel value
 585:bsp/libraries/drivers/src/at32f435_437_tmr.c ****   */
 586:bsp/libraries/drivers/src/at32f435_437_tmr.c **** uint32_t tmr_channel_value_get(tmr_type *tmr_x, tmr_channel_select_type tmr_channel)
 587:bsp/libraries/drivers/src/at32f435_437_tmr.c **** {
 1187              		.loc 1 587 1 is_stmt 1 view -0
 1188              		.cfi_startproc
 1189              		@ args = 0, pretend = 0, frame = 0
 1190              		@ frame_needed = 0, uses_anonymous_args = 0
 1191              		@ link register save eliminated.
 588:bsp/libraries/drivers/src/at32f435_437_tmr.c ****   uint32_t cc_value_get = 0;
 1192              		.loc 1 588 3 view .LVU311
 589:bsp/libraries/drivers/src/at32f435_437_tmr.c ****   uint16_t channel;
 1193              		.loc 1 589 3 view .LVU312
 590:bsp/libraries/drivers/src/at32f435_437_tmr.c **** 
 591:bsp/libraries/drivers/src/at32f435_437_tmr.c ****   channel = tmr_channel;
 1194              		.loc 1 591 3 view .LVU313
 592:bsp/libraries/drivers/src/at32f435_437_tmr.c **** 
 593:bsp/libraries/drivers/src/at32f435_437_tmr.c ****   /* get tmr channel value */
 594:bsp/libraries/drivers/src/at32f435_437_tmr.c ****   switch(channel)
 1195              		.loc 1 594 3 view .LVU314
 1196 0000 0729     		cmp	r1, #7
 1197 0002 0FD8     		bhi	.L81
 1198 0004 DFE801F0 		tbb	[pc, r1]
 1199              	.L76:
 1200 0008 04       		.byte	(.L80-.L76)/2
 1201 0009 0E       		.byte	(.L81-.L76)/2
 1202 000a 06       		.byte	(.L79-.L76)/2
 1203 000b 0E       		.byte	(.L81-.L76)/2
 1204 000c 08       		.byte	(.L78-.L76)/2
 1205 000d 0E       		.byte	(.L81-.L76)/2
 1206 000e 0A       		.byte	(.L77-.L76)/2
 1207 000f 0C       		.byte	(.L75-.L76)/2
 1208              		.p2align 1
 1209              	.L80:
ARM GAS  C:\Users\user\AppData\Local\Temp\cccs5OkE.s 			page 33


 595:bsp/libraries/drivers/src/at32f435_437_tmr.c ****   {
 596:bsp/libraries/drivers/src/at32f435_437_tmr.c ****     case TMR_SELECT_CHANNEL_1:
 597:bsp/libraries/drivers/src/at32f435_437_tmr.c ****       cc_value_get = tmr_x->c1dt;
 1210              		.loc 1 597 7 view .LVU315
 1211              		.loc 1 597 20 is_stmt 0 view .LVU316
 1212 0010 406B     		ldr	r0, [r0, #52]
 1213              	.LVL108:
 598:bsp/libraries/drivers/src/at32f435_437_tmr.c ****       break;
 1214              		.loc 1 598 7 is_stmt 1 view .LVU317
 1215 0012 7047     		bx	lr
 1216              	.LVL109:
 1217              	.L79:
 599:bsp/libraries/drivers/src/at32f435_437_tmr.c **** 
 600:bsp/libraries/drivers/src/at32f435_437_tmr.c ****     case TMR_SELECT_CHANNEL_2:
 601:bsp/libraries/drivers/src/at32f435_437_tmr.c ****       cc_value_get = tmr_x->c2dt;
 1218              		.loc 1 601 7 view .LVU318
 1219              		.loc 1 601 20 is_stmt 0 view .LVU319
 1220 0014 806B     		ldr	r0, [r0, #56]
 1221              	.LVL110:
 602:bsp/libraries/drivers/src/at32f435_437_tmr.c ****       break;
 1222              		.loc 1 602 7 is_stmt 1 view .LVU320
 1223 0016 7047     		bx	lr
 1224              	.LVL111:
 1225              	.L78:
 603:bsp/libraries/drivers/src/at32f435_437_tmr.c **** 
 604:bsp/libraries/drivers/src/at32f435_437_tmr.c ****     case TMR_SELECT_CHANNEL_3:
 605:bsp/libraries/drivers/src/at32f435_437_tmr.c ****       cc_value_get = tmr_x->c3dt;
 1226              		.loc 1 605 7 view .LVU321
 1227              		.loc 1 605 20 is_stmt 0 view .LVU322
 1228 0018 C06B     		ldr	r0, [r0, #60]
 1229              	.LVL112:
 606:bsp/libraries/drivers/src/at32f435_437_tmr.c ****       break;
 1230              		.loc 1 606 7 is_stmt 1 view .LVU323
 1231 001a 7047     		bx	lr
 1232              	.LVL113:
 1233              	.L77:
 607:bsp/libraries/drivers/src/at32f435_437_tmr.c **** 
 608:bsp/libraries/drivers/src/at32f435_437_tmr.c ****     case TMR_SELECT_CHANNEL_4:
 609:bsp/libraries/drivers/src/at32f435_437_tmr.c ****       cc_value_get = tmr_x->c4dt;
 1234              		.loc 1 609 7 view .LVU324
 1235              		.loc 1 609 20 is_stmt 0 view .LVU325
 1236 001c 006C     		ldr	r0, [r0, #64]
 1237              	.LVL114:
 610:bsp/libraries/drivers/src/at32f435_437_tmr.c ****       break;
 1238              		.loc 1 610 7 is_stmt 1 view .LVU326
 1239 001e 7047     		bx	lr
 1240              	.LVL115:
 1241              	.L75:
 611:bsp/libraries/drivers/src/at32f435_437_tmr.c **** 
 612:bsp/libraries/drivers/src/at32f435_437_tmr.c ****     case TMR_SELECT_CHANNEL_5:
 613:bsp/libraries/drivers/src/at32f435_437_tmr.c ****       cc_value_get = tmr_x->c5dt;
 1242              		.loc 1 613 7 view .LVU327
 1243              		.loc 1 613 20 is_stmt 0 view .LVU328
 1244 0020 406F     		ldr	r0, [r0, #116]
 1245              	.LVL116:
 614:bsp/libraries/drivers/src/at32f435_437_tmr.c ****       break;
 1246              		.loc 1 614 7 is_stmt 1 view .LVU329
ARM GAS  C:\Users\user\AppData\Local\Temp\cccs5OkE.s 			page 34


 1247 0022 7047     		bx	lr
 1248              	.LVL117:
 1249              	.L81:
 594:bsp/libraries/drivers/src/at32f435_437_tmr.c ****   {
 1250              		.loc 1 594 3 is_stmt 0 view .LVU330
 1251 0024 0020     		movs	r0, #0
 1252              	.LVL118:
 615:bsp/libraries/drivers/src/at32f435_437_tmr.c **** 
 616:bsp/libraries/drivers/src/at32f435_437_tmr.c ****     default:
 617:bsp/libraries/drivers/src/at32f435_437_tmr.c ****       break;
 618:bsp/libraries/drivers/src/at32f435_437_tmr.c ****   }
 619:bsp/libraries/drivers/src/at32f435_437_tmr.c **** 
 620:bsp/libraries/drivers/src/at32f435_437_tmr.c ****   return cc_value_get;
 1253              		.loc 1 620 3 is_stmt 1 view .LVU331
 621:bsp/libraries/drivers/src/at32f435_437_tmr.c **** }
 1254              		.loc 1 621 1 is_stmt 0 view .LVU332
 1255 0026 7047     		bx	lr
 1256              		.cfi_endproc
 1257              	.LFE151:
 1259              		.section	.text.tmr_period_buffer_enable,"ax",%progbits
 1260              		.align	1
 1261              		.global	tmr_period_buffer_enable
 1262              		.syntax unified
 1263              		.thumb
 1264              		.thumb_func
 1266              	tmr_period_buffer_enable:
 1267              	.LVL119:
 1268              	.LFB152:
 622:bsp/libraries/drivers/src/at32f435_437_tmr.c **** /**
 623:bsp/libraries/drivers/src/at32f435_437_tmr.c ****   * @brief  set tmr period buffer
 624:bsp/libraries/drivers/src/at32f435_437_tmr.c ****   * @param  tmr_x: select the tmr peripheral.
 625:bsp/libraries/drivers/src/at32f435_437_tmr.c ****   *         this parameter can be one of the following values:
 626:bsp/libraries/drivers/src/at32f435_437_tmr.c ****   *         TMR1, TMR2, TMR3, TMR4, TMR5, TMR6, TMR7, TMR8,
 627:bsp/libraries/drivers/src/at32f435_437_tmr.c ****   *         TMR9, TMR10, TMR11, TMR12, TMR13, TMR14, TMR20
 628:bsp/libraries/drivers/src/at32f435_437_tmr.c ****   * @param  new_state (TRUE or FALSE)
 629:bsp/libraries/drivers/src/at32f435_437_tmr.c ****   * @retval none
 630:bsp/libraries/drivers/src/at32f435_437_tmr.c ****   */
 631:bsp/libraries/drivers/src/at32f435_437_tmr.c **** void tmr_period_buffer_enable(tmr_type *tmr_x, confirm_state new_state)
 632:bsp/libraries/drivers/src/at32f435_437_tmr.c **** {
 1269              		.loc 1 632 1 is_stmt 1 view -0
 1270              		.cfi_startproc
 1271              		@ args = 0, pretend = 0, frame = 0
 1272              		@ frame_needed = 0, uses_anonymous_args = 0
 1273              		@ link register save eliminated.
 633:bsp/libraries/drivers/src/at32f435_437_tmr.c ****   /* tmr period buffer set */
 634:bsp/libraries/drivers/src/at32f435_437_tmr.c ****   tmr_x->ctrl1_bit.prben = new_state;
 1274              		.loc 1 634 3 view .LVU334
 1275              		.loc 1 634 26 is_stmt 0 view .LVU335
 1276 0000 0368     		ldr	r3, [r0]
 1277 0002 61F3C713 		bfi	r3, r1, #7, #1
 1278 0006 0360     		str	r3, [r0]
 635:bsp/libraries/drivers/src/at32f435_437_tmr.c **** }
 1279              		.loc 1 635 1 view .LVU336
 1280 0008 7047     		bx	lr
 1281              		.cfi_endproc
 1282              	.LFE152:
 1284              		.section	.text.tmr_output_channel_buffer_enable,"ax",%progbits
ARM GAS  C:\Users\user\AppData\Local\Temp\cccs5OkE.s 			page 35


 1285              		.align	1
 1286              		.global	tmr_output_channel_buffer_enable
 1287              		.syntax unified
 1288              		.thumb
 1289              		.thumb_func
 1291              	tmr_output_channel_buffer_enable:
 1292              	.LVL120:
 1293              	.LFB153:
 636:bsp/libraries/drivers/src/at32f435_437_tmr.c **** 
 637:bsp/libraries/drivers/src/at32f435_437_tmr.c **** /**
 638:bsp/libraries/drivers/src/at32f435_437_tmr.c ****   * @brief  set tmr output channel buffer
 639:bsp/libraries/drivers/src/at32f435_437_tmr.c ****   * @param  tmr_x: select the tmr peripheral.
 640:bsp/libraries/drivers/src/at32f435_437_tmr.c ****   *         this parameter can be one of the following values:
 641:bsp/libraries/drivers/src/at32f435_437_tmr.c ****   *         TMR1, TMR2, TMR3, TMR4, TMR5, TMR8, TMR9, TMR10,
 642:bsp/libraries/drivers/src/at32f435_437_tmr.c ****   *         TMR11, TMR12, TMR13, TMR14, TMR20
 643:bsp/libraries/drivers/src/at32f435_437_tmr.c ****   * @param  tmr_channel
 644:bsp/libraries/drivers/src/at32f435_437_tmr.c ****   *         this parameter can be one of the following values:
 645:bsp/libraries/drivers/src/at32f435_437_tmr.c ****   *         - TMR_SELECT_CHANNEL_1
 646:bsp/libraries/drivers/src/at32f435_437_tmr.c ****   *         - TMR_SELECT_CHANNEL_2
 647:bsp/libraries/drivers/src/at32f435_437_tmr.c ****   *         - TMR_SELECT_CHANNEL_3
 648:bsp/libraries/drivers/src/at32f435_437_tmr.c ****   *         - TMR_SELECT_CHANNEL_4
 649:bsp/libraries/drivers/src/at32f435_437_tmr.c ****   *         - TMR_SELECT_CHANNEL_5
 650:bsp/libraries/drivers/src/at32f435_437_tmr.c ****   * @param  new_state (TRUE or FALSE)
 651:bsp/libraries/drivers/src/at32f435_437_tmr.c ****   * @retval none
 652:bsp/libraries/drivers/src/at32f435_437_tmr.c ****   */
 653:bsp/libraries/drivers/src/at32f435_437_tmr.c **** void tmr_output_channel_buffer_enable(tmr_type *tmr_x, tmr_channel_select_type tmr_channel, \
 654:bsp/libraries/drivers/src/at32f435_437_tmr.c ****                                    confirm_state new_state)
 655:bsp/libraries/drivers/src/at32f435_437_tmr.c **** {
 1294              		.loc 1 655 1 is_stmt 1 view -0
 1295              		.cfi_startproc
 1296              		@ args = 0, pretend = 0, frame = 0
 1297              		@ frame_needed = 0, uses_anonymous_args = 0
 1298              		@ link register save eliminated.
 656:bsp/libraries/drivers/src/at32f435_437_tmr.c ****   uint16_t channel;
 1299              		.loc 1 656 3 view .LVU338
 657:bsp/libraries/drivers/src/at32f435_437_tmr.c **** 
 658:bsp/libraries/drivers/src/at32f435_437_tmr.c ****   channel = tmr_channel;
 1300              		.loc 1 658 3 view .LVU339
 659:bsp/libraries/drivers/src/at32f435_437_tmr.c **** 
 660:bsp/libraries/drivers/src/at32f435_437_tmr.c ****   /* get tmr channel value */
 661:bsp/libraries/drivers/src/at32f435_437_tmr.c ****   switch(channel)
 1301              		.loc 1 661 3 view .LVU340
 1302 0000 0729     		cmp	r1, #7
 1303 0002 1DD8     		bhi	.L83
 1304 0004 DFE801F0 		tbb	[pc, r1]
 1305              	.L86:
 1306 0008 04       		.byte	(.L90-.L86)/2
 1307 0009 1C       		.byte	(.L83-.L86)/2
 1308 000a 09       		.byte	(.L89-.L86)/2
 1309 000b 1C       		.byte	(.L83-.L86)/2
 1310 000c 0E       		.byte	(.L88-.L86)/2
 1311 000d 1C       		.byte	(.L83-.L86)/2
 1312 000e 13       		.byte	(.L87-.L86)/2
 1313 000f 18       		.byte	(.L85-.L86)/2
 1314              		.p2align 1
 1315              	.L90:
 662:bsp/libraries/drivers/src/at32f435_437_tmr.c ****   {
ARM GAS  C:\Users\user\AppData\Local\Temp\cccs5OkE.s 			page 36


 663:bsp/libraries/drivers/src/at32f435_437_tmr.c ****     case TMR_SELECT_CHANNEL_1:
 664:bsp/libraries/drivers/src/at32f435_437_tmr.c ****       tmr_x->cm1_output_bit.c1oben = new_state;
 1316              		.loc 1 664 7 view .LVU341
 1317              		.loc 1 664 36 is_stmt 0 view .LVU342
 1318 0010 8369     		ldr	r3, [r0, #24]
 1319 0012 62F3C303 		bfi	r3, r2, #3, #1
 1320 0016 8361     		str	r3, [r0, #24]
 665:bsp/libraries/drivers/src/at32f435_437_tmr.c ****       break;
 1321              		.loc 1 665 7 is_stmt 1 view .LVU343
 1322 0018 7047     		bx	lr
 1323              	.L89:
 666:bsp/libraries/drivers/src/at32f435_437_tmr.c **** 
 667:bsp/libraries/drivers/src/at32f435_437_tmr.c ****     case TMR_SELECT_CHANNEL_2:
 668:bsp/libraries/drivers/src/at32f435_437_tmr.c ****       tmr_x->cm1_output_bit.c2oben = new_state;
 1324              		.loc 1 668 7 view .LVU344
 1325              		.loc 1 668 36 is_stmt 0 view .LVU345
 1326 001a 8369     		ldr	r3, [r0, #24]
 1327 001c 62F3CB23 		bfi	r3, r2, #11, #1
 1328 0020 8361     		str	r3, [r0, #24]
 669:bsp/libraries/drivers/src/at32f435_437_tmr.c ****       break;
 1329              		.loc 1 669 7 is_stmt 1 view .LVU346
 1330 0022 7047     		bx	lr
 1331              	.L88:
 670:bsp/libraries/drivers/src/at32f435_437_tmr.c **** 
 671:bsp/libraries/drivers/src/at32f435_437_tmr.c ****     case TMR_SELECT_CHANNEL_3:
 672:bsp/libraries/drivers/src/at32f435_437_tmr.c ****       tmr_x->cm2_output_bit.c3oben = new_state;
 1332              		.loc 1 672 7 view .LVU347
 1333              		.loc 1 672 36 is_stmt 0 view .LVU348
 1334 0024 C369     		ldr	r3, [r0, #28]
 1335 0026 62F3C303 		bfi	r3, r2, #3, #1
 1336 002a C361     		str	r3, [r0, #28]
 673:bsp/libraries/drivers/src/at32f435_437_tmr.c ****       break;
 1337              		.loc 1 673 7 is_stmt 1 view .LVU349
 1338 002c 7047     		bx	lr
 1339              	.L87:
 674:bsp/libraries/drivers/src/at32f435_437_tmr.c **** 
 675:bsp/libraries/drivers/src/at32f435_437_tmr.c ****     case TMR_SELECT_CHANNEL_4:
 676:bsp/libraries/drivers/src/at32f435_437_tmr.c ****       tmr_x->cm2_output_bit.c4oben = new_state;
 1340              		.loc 1 676 7 view .LVU350
 1341              		.loc 1 676 36 is_stmt 0 view .LVU351
 1342 002e C369     		ldr	r3, [r0, #28]
 1343 0030 62F3CB23 		bfi	r3, r2, #11, #1
 1344 0034 C361     		str	r3, [r0, #28]
 677:bsp/libraries/drivers/src/at32f435_437_tmr.c ****       break;
 1345              		.loc 1 677 7 is_stmt 1 view .LVU352
 1346 0036 7047     		bx	lr
 1347              	.L85:
 678:bsp/libraries/drivers/src/at32f435_437_tmr.c **** 
 679:bsp/libraries/drivers/src/at32f435_437_tmr.c ****     case TMR_SELECT_CHANNEL_5:
 680:bsp/libraries/drivers/src/at32f435_437_tmr.c ****       tmr_x->cm3_output_bit.c5oben = new_state;
 1348              		.loc 1 680 7 view .LVU353
 1349              		.loc 1 680 36 is_stmt 0 view .LVU354
 1350 0038 036F     		ldr	r3, [r0, #112]
 1351 003a 62F3C303 		bfi	r3, r2, #3, #1
 1352 003e 0367     		str	r3, [r0, #112]
 681:bsp/libraries/drivers/src/at32f435_437_tmr.c ****       break;
 1353              		.loc 1 681 7 is_stmt 1 view .LVU355
ARM GAS  C:\Users\user\AppData\Local\Temp\cccs5OkE.s 			page 37


 1354              	.L83:
 682:bsp/libraries/drivers/src/at32f435_437_tmr.c **** 
 683:bsp/libraries/drivers/src/at32f435_437_tmr.c ****     default:
 684:bsp/libraries/drivers/src/at32f435_437_tmr.c ****       break;
 685:bsp/libraries/drivers/src/at32f435_437_tmr.c ****   }
 686:bsp/libraries/drivers/src/at32f435_437_tmr.c **** }
 1355              		.loc 1 686 1 is_stmt 0 view .LVU356
 1356 0040 7047     		bx	lr
 1357              		.cfi_endproc
 1358              	.LFE153:
 1360              		.section	.text.tmr_output_channel_immediately_set,"ax",%progbits
 1361              		.align	1
 1362              		.global	tmr_output_channel_immediately_set
 1363              		.syntax unified
 1364              		.thumb
 1365              		.thumb_func
 1367              	tmr_output_channel_immediately_set:
 1368              	.LVL121:
 1369              	.LFB154:
 687:bsp/libraries/drivers/src/at32f435_437_tmr.c **** 
 688:bsp/libraries/drivers/src/at32f435_437_tmr.c **** /**
 689:bsp/libraries/drivers/src/at32f435_437_tmr.c ****   * @brief  set tmr output channel immediately
 690:bsp/libraries/drivers/src/at32f435_437_tmr.c ****   * @param  tmr_x: select the tmr peripheral.
 691:bsp/libraries/drivers/src/at32f435_437_tmr.c ****   *         this parameter can be one of the following values:
 692:bsp/libraries/drivers/src/at32f435_437_tmr.c ****   *         TMR1, TMR2, TMR3, TMR4, TMR5, TMR8, TMR9, TMR10,
 693:bsp/libraries/drivers/src/at32f435_437_tmr.c ****   *         TMR11, TMR12, TMR13, TMR14, TMR20
 694:bsp/libraries/drivers/src/at32f435_437_tmr.c ****   * @param  tmr_channel
 695:bsp/libraries/drivers/src/at32f435_437_tmr.c ****   *         this parameter can be one of the following values:
 696:bsp/libraries/drivers/src/at32f435_437_tmr.c ****   *         - TMR_SELECT_CHANNEL_1
 697:bsp/libraries/drivers/src/at32f435_437_tmr.c ****   *         - TMR_SELECT_CHANNEL_2
 698:bsp/libraries/drivers/src/at32f435_437_tmr.c ****   *         - TMR_SELECT_CHANNEL_3
 699:bsp/libraries/drivers/src/at32f435_437_tmr.c ****   *         - TMR_SELECT_CHANNEL_4
 700:bsp/libraries/drivers/src/at32f435_437_tmr.c ****   *         - TMR_SELECT_CHANNEL_5
 701:bsp/libraries/drivers/src/at32f435_437_tmr.c ****   * @param  new_state (TRUE or FALSE)
 702:bsp/libraries/drivers/src/at32f435_437_tmr.c ****   * @retval none
 703:bsp/libraries/drivers/src/at32f435_437_tmr.c ****   */
 704:bsp/libraries/drivers/src/at32f435_437_tmr.c **** void tmr_output_channel_immediately_set(tmr_type *tmr_x, tmr_channel_select_type tmr_channel, \
 705:bsp/libraries/drivers/src/at32f435_437_tmr.c ****                                         confirm_state new_state)
 706:bsp/libraries/drivers/src/at32f435_437_tmr.c **** {
 1370              		.loc 1 706 1 is_stmt 1 view -0
 1371              		.cfi_startproc
 1372              		@ args = 0, pretend = 0, frame = 0
 1373              		@ frame_needed = 0, uses_anonymous_args = 0
 1374              		@ link register save eliminated.
 707:bsp/libraries/drivers/src/at32f435_437_tmr.c ****   uint16_t channel;
 1375              		.loc 1 707 3 view .LVU358
 708:bsp/libraries/drivers/src/at32f435_437_tmr.c **** 
 709:bsp/libraries/drivers/src/at32f435_437_tmr.c ****   channel = tmr_channel;
 1376              		.loc 1 709 3 view .LVU359
 710:bsp/libraries/drivers/src/at32f435_437_tmr.c **** 
 711:bsp/libraries/drivers/src/at32f435_437_tmr.c ****   /* get tmr channel value */
 712:bsp/libraries/drivers/src/at32f435_437_tmr.c ****   switch(channel)
 1377              		.loc 1 712 3 view .LVU360
 1378 0000 0729     		cmp	r1, #7
 1379 0002 1DD8     		bhi	.L91
 1380 0004 DFE801F0 		tbb	[pc, r1]
 1381              	.L94:
ARM GAS  C:\Users\user\AppData\Local\Temp\cccs5OkE.s 			page 38


 1382 0008 04       		.byte	(.L98-.L94)/2
 1383 0009 1C       		.byte	(.L91-.L94)/2
 1384 000a 09       		.byte	(.L97-.L94)/2
 1385 000b 1C       		.byte	(.L91-.L94)/2
 1386 000c 0E       		.byte	(.L96-.L94)/2
 1387 000d 1C       		.byte	(.L91-.L94)/2
 1388 000e 13       		.byte	(.L95-.L94)/2
 1389 000f 18       		.byte	(.L93-.L94)/2
 1390              		.p2align 1
 1391              	.L98:
 713:bsp/libraries/drivers/src/at32f435_437_tmr.c ****   {
 714:bsp/libraries/drivers/src/at32f435_437_tmr.c ****     case TMR_SELECT_CHANNEL_1:
 715:bsp/libraries/drivers/src/at32f435_437_tmr.c ****       tmr_x->cm1_output_bit.c1oien = new_state;
 1392              		.loc 1 715 7 view .LVU361
 1393              		.loc 1 715 36 is_stmt 0 view .LVU362
 1394 0010 8369     		ldr	r3, [r0, #24]
 1395 0012 62F38203 		bfi	r3, r2, #2, #1
 1396 0016 8361     		str	r3, [r0, #24]
 716:bsp/libraries/drivers/src/at32f435_437_tmr.c ****       break;
 1397              		.loc 1 716 7 is_stmt 1 view .LVU363
 1398 0018 7047     		bx	lr
 1399              	.L97:
 717:bsp/libraries/drivers/src/at32f435_437_tmr.c **** 
 718:bsp/libraries/drivers/src/at32f435_437_tmr.c ****     case TMR_SELECT_CHANNEL_2:
 719:bsp/libraries/drivers/src/at32f435_437_tmr.c ****       tmr_x->cm1_output_bit.c2oien = new_state;
 1400              		.loc 1 719 7 view .LVU364
 1401              		.loc 1 719 36 is_stmt 0 view .LVU365
 1402 001a 8369     		ldr	r3, [r0, #24]
 1403 001c 62F38A23 		bfi	r3, r2, #10, #1
 1404 0020 8361     		str	r3, [r0, #24]
 720:bsp/libraries/drivers/src/at32f435_437_tmr.c ****       break;
 1405              		.loc 1 720 7 is_stmt 1 view .LVU366
 1406 0022 7047     		bx	lr
 1407              	.L96:
 721:bsp/libraries/drivers/src/at32f435_437_tmr.c **** 
 722:bsp/libraries/drivers/src/at32f435_437_tmr.c ****     case TMR_SELECT_CHANNEL_3:
 723:bsp/libraries/drivers/src/at32f435_437_tmr.c ****       tmr_x->cm2_output_bit.c3oien = new_state;
 1408              		.loc 1 723 7 view .LVU367
 1409              		.loc 1 723 36 is_stmt 0 view .LVU368
 1410 0024 C369     		ldr	r3, [r0, #28]
 1411 0026 62F38203 		bfi	r3, r2, #2, #1
 1412 002a C361     		str	r3, [r0, #28]
 724:bsp/libraries/drivers/src/at32f435_437_tmr.c ****       break;
 1413              		.loc 1 724 7 is_stmt 1 view .LVU369
 1414 002c 7047     		bx	lr
 1415              	.L95:
 725:bsp/libraries/drivers/src/at32f435_437_tmr.c **** 
 726:bsp/libraries/drivers/src/at32f435_437_tmr.c ****     case TMR_SELECT_CHANNEL_4:
 727:bsp/libraries/drivers/src/at32f435_437_tmr.c ****       tmr_x->cm2_output_bit.c4oien = new_state;
 1416              		.loc 1 727 7 view .LVU370
 1417              		.loc 1 727 36 is_stmt 0 view .LVU371
 1418 002e C369     		ldr	r3, [r0, #28]
 1419 0030 62F38A23 		bfi	r3, r2, #10, #1
 1420 0034 C361     		str	r3, [r0, #28]
 728:bsp/libraries/drivers/src/at32f435_437_tmr.c ****       break;
 1421              		.loc 1 728 7 is_stmt 1 view .LVU372
 1422 0036 7047     		bx	lr
ARM GAS  C:\Users\user\AppData\Local\Temp\cccs5OkE.s 			page 39


 1423              	.L93:
 729:bsp/libraries/drivers/src/at32f435_437_tmr.c **** 
 730:bsp/libraries/drivers/src/at32f435_437_tmr.c ****     case TMR_SELECT_CHANNEL_5:
 731:bsp/libraries/drivers/src/at32f435_437_tmr.c ****       tmr_x->cm3_output_bit.c5oien = new_state;
 1424              		.loc 1 731 7 view .LVU373
 1425              		.loc 1 731 36 is_stmt 0 view .LVU374
 1426 0038 036F     		ldr	r3, [r0, #112]
 1427 003a 62F38203 		bfi	r3, r2, #2, #1
 1428 003e 0367     		str	r3, [r0, #112]
 732:bsp/libraries/drivers/src/at32f435_437_tmr.c ****       break;
 1429              		.loc 1 732 7 is_stmt 1 view .LVU375
 1430              	.L91:
 733:bsp/libraries/drivers/src/at32f435_437_tmr.c **** 
 734:bsp/libraries/drivers/src/at32f435_437_tmr.c ****     default:
 735:bsp/libraries/drivers/src/at32f435_437_tmr.c ****       break;
 736:bsp/libraries/drivers/src/at32f435_437_tmr.c ****   }
 737:bsp/libraries/drivers/src/at32f435_437_tmr.c **** }
 1431              		.loc 1 737 1 is_stmt 0 view .LVU376
 1432 0040 7047     		bx	lr
 1433              		.cfi_endproc
 1434              	.LFE154:
 1436              		.section	.text.tmr_output_channel_switch_set,"ax",%progbits
 1437              		.align	1
 1438              		.global	tmr_output_channel_switch_set
 1439              		.syntax unified
 1440              		.thumb
 1441              		.thumb_func
 1443              	tmr_output_channel_switch_set:
 1444              	.LVL122:
 1445              	.LFB155:
 738:bsp/libraries/drivers/src/at32f435_437_tmr.c **** 
 739:bsp/libraries/drivers/src/at32f435_437_tmr.c **** /**
 740:bsp/libraries/drivers/src/at32f435_437_tmr.c ****   * @brief  set tmr output channel switch
 741:bsp/libraries/drivers/src/at32f435_437_tmr.c ****   * @param  tmr_x: select the tmr peripheral.
 742:bsp/libraries/drivers/src/at32f435_437_tmr.c ****   *         this parameter can be one of the following values:
 743:bsp/libraries/drivers/src/at32f435_437_tmr.c ****   *         TMR1, TMR2, TMR3, TMR4, TMR5, TMR8, TMR9, TMR10,
 744:bsp/libraries/drivers/src/at32f435_437_tmr.c ****   *         TMR11, TMR12, TMR13, TMR14, TMR20
 745:bsp/libraries/drivers/src/at32f435_437_tmr.c ****   * @param  tmr_channel
 746:bsp/libraries/drivers/src/at32f435_437_tmr.c ****   *         this parameter can be one of the following values:
 747:bsp/libraries/drivers/src/at32f435_437_tmr.c ****   *         - TMR_SELECT_CHANNEL_1
 748:bsp/libraries/drivers/src/at32f435_437_tmr.c ****   *         - TMR_SELECT_CHANNEL_2
 749:bsp/libraries/drivers/src/at32f435_437_tmr.c ****   *         - TMR_SELECT_CHANNEL_3
 750:bsp/libraries/drivers/src/at32f435_437_tmr.c ****   *         - TMR_SELECT_CHANNEL_4
 751:bsp/libraries/drivers/src/at32f435_437_tmr.c ****   *         - TMR_SELECT_CHANNEL_5
 752:bsp/libraries/drivers/src/at32f435_437_tmr.c ****   * @param  new_state (TRUE or FALSE)
 753:bsp/libraries/drivers/src/at32f435_437_tmr.c ****   * @retval none
 754:bsp/libraries/drivers/src/at32f435_437_tmr.c ****   */
 755:bsp/libraries/drivers/src/at32f435_437_tmr.c **** void tmr_output_channel_switch_set(tmr_type *tmr_x, tmr_channel_select_type tmr_channel, \
 756:bsp/libraries/drivers/src/at32f435_437_tmr.c ****                                    confirm_state new_state)
 757:bsp/libraries/drivers/src/at32f435_437_tmr.c **** {
 1446              		.loc 1 757 1 is_stmt 1 view -0
 1447              		.cfi_startproc
 1448              		@ args = 0, pretend = 0, frame = 0
 1449              		@ frame_needed = 0, uses_anonymous_args = 0
 1450              		@ link register save eliminated.
 758:bsp/libraries/drivers/src/at32f435_437_tmr.c ****   uint16_t channel;
 1451              		.loc 1 758 3 view .LVU378
ARM GAS  C:\Users\user\AppData\Local\Temp\cccs5OkE.s 			page 40


 759:bsp/libraries/drivers/src/at32f435_437_tmr.c **** 
 760:bsp/libraries/drivers/src/at32f435_437_tmr.c ****   channel = tmr_channel;
 1452              		.loc 1 760 3 view .LVU379
 761:bsp/libraries/drivers/src/at32f435_437_tmr.c **** 
 762:bsp/libraries/drivers/src/at32f435_437_tmr.c ****   /* get tmr channel value */
 763:bsp/libraries/drivers/src/at32f435_437_tmr.c ****   switch(channel)
 1453              		.loc 1 763 3 view .LVU380
 1454 0000 0729     		cmp	r1, #7
 1455 0002 1DD8     		bhi	.L99
 1456 0004 DFE801F0 		tbb	[pc, r1]
 1457              	.L102:
 1458 0008 04       		.byte	(.L106-.L102)/2
 1459 0009 1C       		.byte	(.L99-.L102)/2
 1460 000a 09       		.byte	(.L105-.L102)/2
 1461 000b 1C       		.byte	(.L99-.L102)/2
 1462 000c 0E       		.byte	(.L104-.L102)/2
 1463 000d 1C       		.byte	(.L99-.L102)/2
 1464 000e 13       		.byte	(.L103-.L102)/2
 1465 000f 18       		.byte	(.L101-.L102)/2
 1466              		.p2align 1
 1467              	.L106:
 764:bsp/libraries/drivers/src/at32f435_437_tmr.c ****   {
 765:bsp/libraries/drivers/src/at32f435_437_tmr.c ****     case TMR_SELECT_CHANNEL_1:
 766:bsp/libraries/drivers/src/at32f435_437_tmr.c ****       tmr_x->cm1_output_bit.c1osen = new_state;
 1468              		.loc 1 766 7 view .LVU381
 1469              		.loc 1 766 36 is_stmt 0 view .LVU382
 1470 0010 8369     		ldr	r3, [r0, #24]
 1471 0012 62F3C713 		bfi	r3, r2, #7, #1
 1472 0016 8361     		str	r3, [r0, #24]
 767:bsp/libraries/drivers/src/at32f435_437_tmr.c ****       break;
 1473              		.loc 1 767 7 is_stmt 1 view .LVU383
 1474 0018 7047     		bx	lr
 1475              	.L105:
 768:bsp/libraries/drivers/src/at32f435_437_tmr.c **** 
 769:bsp/libraries/drivers/src/at32f435_437_tmr.c ****     case TMR_SELECT_CHANNEL_2:
 770:bsp/libraries/drivers/src/at32f435_437_tmr.c ****       tmr_x->cm1_output_bit.c2osen = new_state;
 1476              		.loc 1 770 7 view .LVU384
 1477              		.loc 1 770 36 is_stmt 0 view .LVU385
 1478 001a 8369     		ldr	r3, [r0, #24]
 1479 001c 62F3CF33 		bfi	r3, r2, #15, #1
 1480 0020 8361     		str	r3, [r0, #24]
 771:bsp/libraries/drivers/src/at32f435_437_tmr.c ****       break;
 1481              		.loc 1 771 7 is_stmt 1 view .LVU386
 1482 0022 7047     		bx	lr
 1483              	.L104:
 772:bsp/libraries/drivers/src/at32f435_437_tmr.c **** 
 773:bsp/libraries/drivers/src/at32f435_437_tmr.c ****     case TMR_SELECT_CHANNEL_3:
 774:bsp/libraries/drivers/src/at32f435_437_tmr.c ****       tmr_x->cm2_output_bit.c3osen = new_state;
 1484              		.loc 1 774 7 view .LVU387
 1485              		.loc 1 774 36 is_stmt 0 view .LVU388
 1486 0024 C369     		ldr	r3, [r0, #28]
 1487 0026 62F3C713 		bfi	r3, r2, #7, #1
 1488 002a C361     		str	r3, [r0, #28]
 775:bsp/libraries/drivers/src/at32f435_437_tmr.c ****       break;
 1489              		.loc 1 775 7 is_stmt 1 view .LVU389
 1490 002c 7047     		bx	lr
 1491              	.L103:
ARM GAS  C:\Users\user\AppData\Local\Temp\cccs5OkE.s 			page 41


 776:bsp/libraries/drivers/src/at32f435_437_tmr.c **** 
 777:bsp/libraries/drivers/src/at32f435_437_tmr.c ****     case TMR_SELECT_CHANNEL_4:
 778:bsp/libraries/drivers/src/at32f435_437_tmr.c ****       tmr_x->cm2_output_bit.c4osen = new_state;
 1492              		.loc 1 778 7 view .LVU390
 1493              		.loc 1 778 36 is_stmt 0 view .LVU391
 1494 002e C369     		ldr	r3, [r0, #28]
 1495 0030 62F3CF33 		bfi	r3, r2, #15, #1
 1496 0034 C361     		str	r3, [r0, #28]
 779:bsp/libraries/drivers/src/at32f435_437_tmr.c ****       break;
 1497              		.loc 1 779 7 is_stmt 1 view .LVU392
 1498 0036 7047     		bx	lr
 1499              	.L101:
 780:bsp/libraries/drivers/src/at32f435_437_tmr.c **** 
 781:bsp/libraries/drivers/src/at32f435_437_tmr.c ****     case TMR_SELECT_CHANNEL_5:
 782:bsp/libraries/drivers/src/at32f435_437_tmr.c ****       tmr_x->cm3_output_bit.c5osen = new_state;
 1500              		.loc 1 782 7 view .LVU393
 1501              		.loc 1 782 36 is_stmt 0 view .LVU394
 1502 0038 036F     		ldr	r3, [r0, #112]
 1503 003a 62F3C713 		bfi	r3, r2, #7, #1
 1504 003e 0367     		str	r3, [r0, #112]
 783:bsp/libraries/drivers/src/at32f435_437_tmr.c ****       break;
 1505              		.loc 1 783 7 is_stmt 1 view .LVU395
 1506              	.L99:
 784:bsp/libraries/drivers/src/at32f435_437_tmr.c **** 
 785:bsp/libraries/drivers/src/at32f435_437_tmr.c ****     default:
 786:bsp/libraries/drivers/src/at32f435_437_tmr.c ****       break;
 787:bsp/libraries/drivers/src/at32f435_437_tmr.c ****   }
 788:bsp/libraries/drivers/src/at32f435_437_tmr.c **** }
 1507              		.loc 1 788 1 is_stmt 0 view .LVU396
 1508 0040 7047     		bx	lr
 1509              		.cfi_endproc
 1510              	.LFE155:
 1512              		.section	.text.tmr_one_cycle_mode_enable,"ax",%progbits
 1513              		.align	1
 1514              		.global	tmr_one_cycle_mode_enable
 1515              		.syntax unified
 1516              		.thumb
 1517              		.thumb_func
 1519              	tmr_one_cycle_mode_enable:
 1520              	.LVL123:
 1521              	.LFB156:
 789:bsp/libraries/drivers/src/at32f435_437_tmr.c **** 
 790:bsp/libraries/drivers/src/at32f435_437_tmr.c **** /**
 791:bsp/libraries/drivers/src/at32f435_437_tmr.c ****   * @brief  enable or disable tmr one cycle mode
 792:bsp/libraries/drivers/src/at32f435_437_tmr.c ****   * @param  tmr_x: select the tmr peripheral.
 793:bsp/libraries/drivers/src/at32f435_437_tmr.c ****   *         this parameter can be one of the following values:
 794:bsp/libraries/drivers/src/at32f435_437_tmr.c ****   *         TMR1, TMR2, TMR3, TMR4, TMR5, TMR6, TMR7, TMR8, TMR9, TMR12, TMR20
 795:bsp/libraries/drivers/src/at32f435_437_tmr.c ****   * @param  new_state (TRUE or FALSE)
 796:bsp/libraries/drivers/src/at32f435_437_tmr.c ****   * @retval none
 797:bsp/libraries/drivers/src/at32f435_437_tmr.c ****   */
 798:bsp/libraries/drivers/src/at32f435_437_tmr.c **** void tmr_one_cycle_mode_enable(tmr_type *tmr_x, confirm_state new_state)
 799:bsp/libraries/drivers/src/at32f435_437_tmr.c **** {
 1522              		.loc 1 799 1 is_stmt 1 view -0
 1523              		.cfi_startproc
 1524              		@ args = 0, pretend = 0, frame = 0
 1525              		@ frame_needed = 0, uses_anonymous_args = 0
 1526              		@ link register save eliminated.
ARM GAS  C:\Users\user\AppData\Local\Temp\cccs5OkE.s 			page 42


 800:bsp/libraries/drivers/src/at32f435_437_tmr.c ****   /* tmr one cycle mode enable */
 801:bsp/libraries/drivers/src/at32f435_437_tmr.c ****   tmr_x->ctrl1_bit.ocmen = new_state;
 1527              		.loc 1 801 3 view .LVU398
 1528              		.loc 1 801 26 is_stmt 0 view .LVU399
 1529 0000 0368     		ldr	r3, [r0]
 1530 0002 61F3C303 		bfi	r3, r1, #3, #1
 1531 0006 0360     		str	r3, [r0]
 802:bsp/libraries/drivers/src/at32f435_437_tmr.c **** }
 1532              		.loc 1 802 1 view .LVU400
 1533 0008 7047     		bx	lr
 1534              		.cfi_endproc
 1535              	.LFE156:
 1537              		.section	.text.tmr_32_bit_function_enable,"ax",%progbits
 1538              		.align	1
 1539              		.global	tmr_32_bit_function_enable
 1540              		.syntax unified
 1541              		.thumb
 1542              		.thumb_func
 1544              	tmr_32_bit_function_enable:
 1545              	.LVL124:
 1546              	.LFB157:
 803:bsp/libraries/drivers/src/at32f435_437_tmr.c **** 
 804:bsp/libraries/drivers/src/at32f435_437_tmr.c **** /**
 805:bsp/libraries/drivers/src/at32f435_437_tmr.c ****   * @brief  enable or disable  tmr 32 bit function(plus mode)
 806:bsp/libraries/drivers/src/at32f435_437_tmr.c ****   * @param  tmr_x: select the tmr peripheral.
 807:bsp/libraries/drivers/src/at32f435_437_tmr.c ****   *         this parameter can be one of the following values:
 808:bsp/libraries/drivers/src/at32f435_437_tmr.c ****   *         TMR2, TMR5
 809:bsp/libraries/drivers/src/at32f435_437_tmr.c ****   * @param  new_state (TRUE or FALSE)
 810:bsp/libraries/drivers/src/at32f435_437_tmr.c ****   * @retval none
 811:bsp/libraries/drivers/src/at32f435_437_tmr.c ****   */
 812:bsp/libraries/drivers/src/at32f435_437_tmr.c **** void tmr_32_bit_function_enable (tmr_type *tmr_x, confirm_state new_state)
 813:bsp/libraries/drivers/src/at32f435_437_tmr.c **** {
 1547              		.loc 1 813 1 is_stmt 1 view -0
 1548              		.cfi_startproc
 1549              		@ args = 0, pretend = 0, frame = 0
 1550              		@ frame_needed = 0, uses_anonymous_args = 0
 1551              		@ link register save eliminated.
 814:bsp/libraries/drivers/src/at32f435_437_tmr.c ****   /* tmr 32 bit function(plus mode) enable,only for TMR2/TMR5 */
 815:bsp/libraries/drivers/src/at32f435_437_tmr.c ****   if((tmr_x == TMR2) || (tmr_x == TMR5))
 1552              		.loc 1 815 3 view .LVU402
 1553              		.loc 1 815 5 is_stmt 0 view .LVU403
 1554 0000 B0F1804F 		cmp	r0, #1073741824
 1555 0004 02D0     		beq	.L109
 1556              		.loc 1 815 22 discriminator 1 view .LVU404
 1557 0006 044B     		ldr	r3, .L111
 1558 0008 9842     		cmp	r0, r3
 1559 000a 03D1     		bne	.L108
 1560              	.L109:
 816:bsp/libraries/drivers/src/at32f435_437_tmr.c ****   {
 817:bsp/libraries/drivers/src/at32f435_437_tmr.c ****     tmr_x->ctrl1_bit.pmen = new_state;
 1561              		.loc 1 817 5 is_stmt 1 view .LVU405
 1562              		.loc 1 817 27 is_stmt 0 view .LVU406
 1563 000c 0368     		ldr	r3, [r0]
 1564 000e 61F38A23 		bfi	r3, r1, #10, #1
 1565 0012 0360     		str	r3, [r0]
 1566              	.L108:
 818:bsp/libraries/drivers/src/at32f435_437_tmr.c ****   }
ARM GAS  C:\Users\user\AppData\Local\Temp\cccs5OkE.s 			page 43


 819:bsp/libraries/drivers/src/at32f435_437_tmr.c **** }
 1567              		.loc 1 819 1 view .LVU407
 1568 0014 7047     		bx	lr
 1569              	.L112:
 1570 0016 00BF     		.align	2
 1571              	.L111:
 1572 0018 000C0040 		.word	1073744896
 1573              		.cfi_endproc
 1574              	.LFE157:
 1576              		.section	.text.tmr_overflow_request_source_set,"ax",%progbits
 1577              		.align	1
 1578              		.global	tmr_overflow_request_source_set
 1579              		.syntax unified
 1580              		.thumb
 1581              		.thumb_func
 1583              	tmr_overflow_request_source_set:
 1584              	.LVL125:
 1585              	.LFB158:
 820:bsp/libraries/drivers/src/at32f435_437_tmr.c **** 
 821:bsp/libraries/drivers/src/at32f435_437_tmr.c **** /**
 822:bsp/libraries/drivers/src/at32f435_437_tmr.c ****   * @brief  select tmr the overflow event sources
 823:bsp/libraries/drivers/src/at32f435_437_tmr.c ****   * @param  tmr_x: select the tmr peripheral.
 824:bsp/libraries/drivers/src/at32f435_437_tmr.c ****   *         this parameter can be one of the following values:
 825:bsp/libraries/drivers/src/at32f435_437_tmr.c ****   *         TMR1, TMR2, TMR3, TMR4, TMR5, TMR6, TMR7, TMR8,
 826:bsp/libraries/drivers/src/at32f435_437_tmr.c ****   *         TMR9, TMR10, TMR11, TMR12, TMR13, TMR14, TMR20
 827:bsp/libraries/drivers/src/at32f435_437_tmr.c ****   * @param  new_state (TRUE or FALSE)
 828:bsp/libraries/drivers/src/at32f435_437_tmr.c ****   * @retval none
 829:bsp/libraries/drivers/src/at32f435_437_tmr.c ****   */
 830:bsp/libraries/drivers/src/at32f435_437_tmr.c **** void tmr_overflow_request_source_set(tmr_type *tmr_x, confirm_state new_state)
 831:bsp/libraries/drivers/src/at32f435_437_tmr.c **** {
 1586              		.loc 1 831 1 is_stmt 1 view -0
 1587              		.cfi_startproc
 1588              		@ args = 0, pretend = 0, frame = 0
 1589              		@ frame_needed = 0, uses_anonymous_args = 0
 1590              		@ link register save eliminated.
 832:bsp/libraries/drivers/src/at32f435_437_tmr.c ****   tmr_x->ctrl1_bit.ovfs = new_state;
 1591              		.loc 1 832 3 view .LVU409
 1592              		.loc 1 832 25 is_stmt 0 view .LVU410
 1593 0000 0368     		ldr	r3, [r0]
 1594 0002 61F38203 		bfi	r3, r1, #2, #1
 1595 0006 0360     		str	r3, [r0]
 833:bsp/libraries/drivers/src/at32f435_437_tmr.c **** }
 1596              		.loc 1 833 1 view .LVU411
 1597 0008 7047     		bx	lr
 1598              		.cfi_endproc
 1599              	.LFE158:
 1601              		.section	.text.tmr_overflow_event_disable,"ax",%progbits
 1602              		.align	1
 1603              		.global	tmr_overflow_event_disable
 1604              		.syntax unified
 1605              		.thumb
 1606              		.thumb_func
 1608              	tmr_overflow_event_disable:
 1609              	.LVL126:
 1610              	.LFB159:
 834:bsp/libraries/drivers/src/at32f435_437_tmr.c **** 
 835:bsp/libraries/drivers/src/at32f435_437_tmr.c **** /**
ARM GAS  C:\Users\user\AppData\Local\Temp\cccs5OkE.s 			page 44


 836:bsp/libraries/drivers/src/at32f435_437_tmr.c ****   * @brief  enable or disable tmr overflow event generation
 837:bsp/libraries/drivers/src/at32f435_437_tmr.c ****   * @param  tmr_x: select the tmr peripheral.
 838:bsp/libraries/drivers/src/at32f435_437_tmr.c ****   *         this parameter can be one of the following values:
 839:bsp/libraries/drivers/src/at32f435_437_tmr.c ****   *         TMR1, TMR2, TMR3, TMR4, TMR5, TMR6, TMR7, TMR8,
 840:bsp/libraries/drivers/src/at32f435_437_tmr.c ****   *         TMR9, TMR10, TMR11, TMR12, TMR13, TMR14, TMR20
 841:bsp/libraries/drivers/src/at32f435_437_tmr.c ****   * @param  new_state (TRUE or FALSE)
 842:bsp/libraries/drivers/src/at32f435_437_tmr.c ****   * @retval none
 843:bsp/libraries/drivers/src/at32f435_437_tmr.c ****   */
 844:bsp/libraries/drivers/src/at32f435_437_tmr.c **** void tmr_overflow_event_disable(tmr_type *tmr_x, confirm_state new_state)
 845:bsp/libraries/drivers/src/at32f435_437_tmr.c **** {
 1611              		.loc 1 845 1 is_stmt 1 view -0
 1612              		.cfi_startproc
 1613              		@ args = 0, pretend = 0, frame = 0
 1614              		@ frame_needed = 0, uses_anonymous_args = 0
 1615              		@ link register save eliminated.
 846:bsp/libraries/drivers/src/at32f435_437_tmr.c ****   tmr_x->ctrl1_bit.ovfen = new_state;
 1616              		.loc 1 846 3 view .LVU413
 1617              		.loc 1 846 26 is_stmt 0 view .LVU414
 1618 0000 0368     		ldr	r3, [r0]
 1619 0002 61F34103 		bfi	r3, r1, #1, #1
 1620 0006 0360     		str	r3, [r0]
 847:bsp/libraries/drivers/src/at32f435_437_tmr.c **** }
 1621              		.loc 1 847 1 view .LVU415
 1622 0008 7047     		bx	lr
 1623              		.cfi_endproc
 1624              	.LFE159:
 1626              		.section	.text.tmr_input_channel_init,"ax",%progbits
 1627              		.align	1
 1628              		.global	tmr_input_channel_init
 1629              		.syntax unified
 1630              		.thumb
 1631              		.thumb_func
 1633              	tmr_input_channel_init:
 1634              	.LVL127:
 1635              	.LFB160:
 848:bsp/libraries/drivers/src/at32f435_437_tmr.c **** 
 849:bsp/libraries/drivers/src/at32f435_437_tmr.c **** /**
 850:bsp/libraries/drivers/src/at32f435_437_tmr.c ****   * @brief  init tmr input channel
 851:bsp/libraries/drivers/src/at32f435_437_tmr.c ****   * @param  tmr_x: select the tmr peripheral.
 852:bsp/libraries/drivers/src/at32f435_437_tmr.c ****   *         this parameter can be one of the following values:
 853:bsp/libraries/drivers/src/at32f435_437_tmr.c ****   *         TMR1, TMR2, TMR3, TMR4, TMR5, TMR8, TMR9, TMR10,
 854:bsp/libraries/drivers/src/at32f435_437_tmr.c ****   *         TMR11, TMR12, TMR13, TMR14, TMR20
 855:bsp/libraries/drivers/src/at32f435_437_tmr.c ****   * @param  input_struct
 856:bsp/libraries/drivers/src/at32f435_437_tmr.c ****   *         - to the structure of tmr_input_config_type
 857:bsp/libraries/drivers/src/at32f435_437_tmr.c ****   * @param  divider_factor
 858:bsp/libraries/drivers/src/at32f435_437_tmr.c ****   *         this parameter can be one of the following values:
 859:bsp/libraries/drivers/src/at32f435_437_tmr.c ****   *         - TMR_CHANNEL_INPUT_DIV_1
 860:bsp/libraries/drivers/src/at32f435_437_tmr.c ****   *         - TMR_CHANNEL_INPUT_DIV_2
 861:bsp/libraries/drivers/src/at32f435_437_tmr.c ****   *         - TMR_CHANNEL_INPUT_DIV_4
 862:bsp/libraries/drivers/src/at32f435_437_tmr.c ****   *         - TMR_CHANNEL_INPUT_DIV_8
 863:bsp/libraries/drivers/src/at32f435_437_tmr.c ****   * @retval none
 864:bsp/libraries/drivers/src/at32f435_437_tmr.c ****   */
 865:bsp/libraries/drivers/src/at32f435_437_tmr.c **** void tmr_input_channel_init(tmr_type *tmr_x, tmr_input_config_type *input_struct, \
 866:bsp/libraries/drivers/src/at32f435_437_tmr.c ****                             tmr_channel_input_divider_type divider_factor)
 867:bsp/libraries/drivers/src/at32f435_437_tmr.c **** {
 1636              		.loc 1 867 1 is_stmt 1 view -0
 1637              		.cfi_startproc
ARM GAS  C:\Users\user\AppData\Local\Temp\cccs5OkE.s 			page 45


 1638              		@ args = 0, pretend = 0, frame = 0
 1639              		@ frame_needed = 0, uses_anonymous_args = 0
 1640              		@ link register save eliminated.
 1641              		.loc 1 867 1 is_stmt 0 view .LVU417
 1642 0000 10B4     		push	{r4}
 1643              	.LCFI2:
 1644              		.cfi_def_cfa_offset 4
 1645              		.cfi_offset 4, -4
 868:bsp/libraries/drivers/src/at32f435_437_tmr.c ****   uint16_t channel = 0;
 1646              		.loc 1 868 3 is_stmt 1 view .LVU418
 1647              	.LVL128:
 869:bsp/libraries/drivers/src/at32f435_437_tmr.c **** 
 870:bsp/libraries/drivers/src/at32f435_437_tmr.c ****   /* get channel selected */
 871:bsp/libraries/drivers/src/at32f435_437_tmr.c ****   channel = input_struct->input_channel_select;
 1648              		.loc 1 871 3 view .LVU419
 1649              		.loc 1 871 25 is_stmt 0 view .LVU420
 1650 0002 0B78     		ldrb	r3, [r1]	@ zero_extendqisi2
 1651              	.LVL129:
 872:bsp/libraries/drivers/src/at32f435_437_tmr.c **** 
 873:bsp/libraries/drivers/src/at32f435_437_tmr.c ****   switch(channel)
 1652              		.loc 1 873 3 is_stmt 1 view .LVU421
 1653 0004 062B     		cmp	r3, #6
 1654 0006 27D8     		bhi	.L115
 1655 0008 DFE803F0 		tbb	[pc, r3]
 1656              	.L118:
 1657 000c 04       		.byte	(.L121-.L118)/2
 1658 000d 26       		.byte	(.L115-.L118)/2
 1659 000e 28       		.byte	(.L120-.L118)/2
 1660 000f 26       		.byte	(.L115-.L118)/2
 1661 0010 4B       		.byte	(.L119-.L118)/2
 1662 0011 26       		.byte	(.L115-.L118)/2
 1663 0012 6E       		.byte	(.L117-.L118)/2
 1664 0013 00       		.p2align 1
 1665              	.L121:
 874:bsp/libraries/drivers/src/at32f435_437_tmr.c ****   {
 875:bsp/libraries/drivers/src/at32f435_437_tmr.c ****     case TMR_SELECT_CHANNEL_1:
 876:bsp/libraries/drivers/src/at32f435_437_tmr.c ****       tmr_x->cctrl_bit.c1en       = FALSE;
 1666              		.loc 1 876 7 view .LVU422
 1667              		.loc 1 876 35 is_stmt 0 view .LVU423
 1668 0014 036A     		ldr	r3, [r0, #32]
 1669              	.LVL130:
 1670              		.loc 1 876 35 view .LVU424
 1671 0016 6FF30003 		bfc	r3, #0, #1
 1672 001a 0362     		str	r3, [r0, #32]
 1673              	.LVL131:
 877:bsp/libraries/drivers/src/at32f435_437_tmr.c ****       tmr_x->cctrl_bit.c1p        = (uint32_t)input_struct->input_polarity_select;
 1674              		.loc 1 877 7 is_stmt 1 view .LVU425
 1675              		.loc 1 877 59 is_stmt 0 view .LVU426
 1676 001c 4C78     		ldrb	r4, [r1, #1]	@ zero_extendqisi2
 1677              		.loc 1 877 35 view .LVU427
 1678 001e 036A     		ldr	r3, [r0, #32]
 1679 0020 64F34103 		bfi	r3, r4, #1, #1
 1680 0024 0362     		str	r3, [r0, #32]
 878:bsp/libraries/drivers/src/at32f435_437_tmr.c ****       tmr_x->cctrl_bit.c1cp       = (input_struct->input_polarity_select & 0x2) >> 1;
 1681              		.loc 1 878 7 is_stmt 1 view .LVU428
 1682              		.loc 1 878 50 is_stmt 0 view .LVU429
 1683 0026 4B78     		ldrb	r3, [r1, #1]	@ zero_extendqisi2
ARM GAS  C:\Users\user\AppData\Local\Temp\cccs5OkE.s 			page 46


 1684              		.loc 1 878 81 view .LVU430
 1685 0028 C3F34003 		ubfx	r3, r3, #1, #1
 1686              		.loc 1 878 35 view .LVU431
 1687 002c 046A     		ldr	r4, [r0, #32]
 1688 002e 63F3C304 		bfi	r4, r3, #3, #1
 1689 0032 0462     		str	r4, [r0, #32]
 879:bsp/libraries/drivers/src/at32f435_437_tmr.c ****       tmr_x->cm1_input_bit.c1c    = input_struct->input_mapped_select;
 1690              		.loc 1 879 7 is_stmt 1 view .LVU432
 1691              		.loc 1 879 49 is_stmt 0 view .LVU433
 1692 0034 8C78     		ldrb	r4, [r1, #2]	@ zero_extendqisi2
 1693              		.loc 1 879 35 view .LVU434
 1694 0036 8369     		ldr	r3, [r0, #24]
 1695 0038 64F30103 		bfi	r3, r4, #0, #2
 1696 003c 8361     		str	r3, [r0, #24]
 880:bsp/libraries/drivers/src/at32f435_437_tmr.c ****       tmr_x->cm1_input_bit.c1df   = input_struct->input_filter_value;
 1697              		.loc 1 880 7 is_stmt 1 view .LVU435
 1698              		.loc 1 880 49 is_stmt 0 view .LVU436
 1699 003e C978     		ldrb	r1, [r1, #3]	@ zero_extendqisi2
 1700              	.LVL132:
 1701              		.loc 1 880 35 view .LVU437
 1702 0040 8369     		ldr	r3, [r0, #24]
 1703 0042 61F30713 		bfi	r3, r1, #4, #4
 1704 0046 8361     		str	r3, [r0, #24]
 881:bsp/libraries/drivers/src/at32f435_437_tmr.c ****       tmr_x->cm1_input_bit.c1idiv = divider_factor;
 1705              		.loc 1 881 7 is_stmt 1 view .LVU438
 1706              		.loc 1 881 35 is_stmt 0 view .LVU439
 1707 0048 8369     		ldr	r3, [r0, #24]
 1708 004a 62F38303 		bfi	r3, r2, #2, #2
 1709 004e 8361     		str	r3, [r0, #24]
 882:bsp/libraries/drivers/src/at32f435_437_tmr.c ****       tmr_x->cctrl_bit.c1en       = TRUE;
 1710              		.loc 1 882 7 is_stmt 1 view .LVU440
 1711              		.loc 1 882 35 is_stmt 0 view .LVU441
 1712 0050 036A     		ldr	r3, [r0, #32]
 1713 0052 43F00103 		orr	r3, r3, #1
 1714 0056 0362     		str	r3, [r0, #32]
 883:bsp/libraries/drivers/src/at32f435_437_tmr.c ****       break;
 1715              		.loc 1 883 7 is_stmt 1 view .LVU442
 1716              	.L115:
 884:bsp/libraries/drivers/src/at32f435_437_tmr.c **** 
 885:bsp/libraries/drivers/src/at32f435_437_tmr.c ****     case TMR_SELECT_CHANNEL_2:
 886:bsp/libraries/drivers/src/at32f435_437_tmr.c ****       tmr_x->cctrl_bit.c2en       = FALSE;
 887:bsp/libraries/drivers/src/at32f435_437_tmr.c ****       tmr_x->cctrl_bit.c2p        = (uint32_t)input_struct->input_polarity_select;
 888:bsp/libraries/drivers/src/at32f435_437_tmr.c ****       tmr_x->cctrl_bit.c2cp       = (input_struct->input_polarity_select & 0x2) >> 1;
 889:bsp/libraries/drivers/src/at32f435_437_tmr.c ****       tmr_x->cm1_input_bit.c2c    = input_struct->input_mapped_select;
 890:bsp/libraries/drivers/src/at32f435_437_tmr.c ****       tmr_x->cm1_input_bit.c2df   = input_struct->input_filter_value;
 891:bsp/libraries/drivers/src/at32f435_437_tmr.c ****       tmr_x->cm1_input_bit.c2idiv = divider_factor;
 892:bsp/libraries/drivers/src/at32f435_437_tmr.c ****       tmr_x->cctrl_bit.c2en       = TRUE;
 893:bsp/libraries/drivers/src/at32f435_437_tmr.c ****       break;
 894:bsp/libraries/drivers/src/at32f435_437_tmr.c **** 
 895:bsp/libraries/drivers/src/at32f435_437_tmr.c ****     case TMR_SELECT_CHANNEL_3:
 896:bsp/libraries/drivers/src/at32f435_437_tmr.c ****       tmr_x->cctrl_bit.c3en       = FALSE;
 897:bsp/libraries/drivers/src/at32f435_437_tmr.c ****       tmr_x->cctrl_bit.c3p        = (uint32_t)input_struct->input_polarity_select;
 898:bsp/libraries/drivers/src/at32f435_437_tmr.c ****       tmr_x->cctrl_bit.c3cp       = (input_struct->input_polarity_select & 0x2) >> 1;
 899:bsp/libraries/drivers/src/at32f435_437_tmr.c ****       tmr_x->cm2_input_bit.c3c    = input_struct->input_mapped_select;
 900:bsp/libraries/drivers/src/at32f435_437_tmr.c ****       tmr_x->cm2_input_bit.c3df   = input_struct->input_filter_value;
 901:bsp/libraries/drivers/src/at32f435_437_tmr.c ****       tmr_x->cm2_input_bit.c3idiv = divider_factor;
 902:bsp/libraries/drivers/src/at32f435_437_tmr.c ****       tmr_x->cctrl_bit.c3en       = TRUE;
ARM GAS  C:\Users\user\AppData\Local\Temp\cccs5OkE.s 			page 47


 903:bsp/libraries/drivers/src/at32f435_437_tmr.c ****       break;
 904:bsp/libraries/drivers/src/at32f435_437_tmr.c **** 
 905:bsp/libraries/drivers/src/at32f435_437_tmr.c ****     case TMR_SELECT_CHANNEL_4:
 906:bsp/libraries/drivers/src/at32f435_437_tmr.c ****       tmr_x->cctrl_bit.c4en       = FALSE;
 907:bsp/libraries/drivers/src/at32f435_437_tmr.c ****       tmr_x->cctrl_bit.c4p        = (uint32_t)input_struct->input_polarity_select;
 908:bsp/libraries/drivers/src/at32f435_437_tmr.c ****       tmr_x->cm2_input_bit.c4c    = input_struct->input_mapped_select;
 909:bsp/libraries/drivers/src/at32f435_437_tmr.c ****       tmr_x->cm2_input_bit.c4df   = input_struct->input_filter_value;
 910:bsp/libraries/drivers/src/at32f435_437_tmr.c ****       tmr_x->cm2_input_bit.c4idiv = divider_factor;
 911:bsp/libraries/drivers/src/at32f435_437_tmr.c ****       tmr_x->cctrl_bit.c4en       = TRUE;
 912:bsp/libraries/drivers/src/at32f435_437_tmr.c ****       break;
 913:bsp/libraries/drivers/src/at32f435_437_tmr.c **** 
 914:bsp/libraries/drivers/src/at32f435_437_tmr.c ****     default:
 915:bsp/libraries/drivers/src/at32f435_437_tmr.c ****       break;
 916:bsp/libraries/drivers/src/at32f435_437_tmr.c ****   }
 917:bsp/libraries/drivers/src/at32f435_437_tmr.c **** }
 1717              		.loc 1 917 1 is_stmt 0 view .LVU443
 1718 0058 10BC     		pop	{r4}
 1719              	.LCFI3:
 1720              		.cfi_remember_state
 1721              		.cfi_restore 4
 1722              		.cfi_def_cfa_offset 0
 1723 005a 7047     		bx	lr
 1724              	.LVL133:
 1725              	.L120:
 1726              	.LCFI4:
 1727              		.cfi_restore_state
 886:bsp/libraries/drivers/src/at32f435_437_tmr.c ****       tmr_x->cctrl_bit.c2p        = (uint32_t)input_struct->input_polarity_select;
 1728              		.loc 1 886 7 is_stmt 1 view .LVU444
 886:bsp/libraries/drivers/src/at32f435_437_tmr.c ****       tmr_x->cctrl_bit.c2p        = (uint32_t)input_struct->input_polarity_select;
 1729              		.loc 1 886 35 is_stmt 0 view .LVU445
 1730 005c 036A     		ldr	r3, [r0, #32]
 1731              	.LVL134:
 886:bsp/libraries/drivers/src/at32f435_437_tmr.c ****       tmr_x->cctrl_bit.c2p        = (uint32_t)input_struct->input_polarity_select;
 1732              		.loc 1 886 35 view .LVU446
 1733 005e 6FF30413 		bfc	r3, #4, #1
 1734 0062 0362     		str	r3, [r0, #32]
 1735              	.LVL135:
 887:bsp/libraries/drivers/src/at32f435_437_tmr.c ****       tmr_x->cctrl_bit.c2cp       = (input_struct->input_polarity_select & 0x2) >> 1;
 1736              		.loc 1 887 7 is_stmt 1 view .LVU447
 887:bsp/libraries/drivers/src/at32f435_437_tmr.c ****       tmr_x->cctrl_bit.c2cp       = (input_struct->input_polarity_select & 0x2) >> 1;
 1737              		.loc 1 887 59 is_stmt 0 view .LVU448
 1738 0064 4C78     		ldrb	r4, [r1, #1]	@ zero_extendqisi2
 887:bsp/libraries/drivers/src/at32f435_437_tmr.c ****       tmr_x->cctrl_bit.c2cp       = (input_struct->input_polarity_select & 0x2) >> 1;
 1739              		.loc 1 887 35 view .LVU449
 1740 0066 036A     		ldr	r3, [r0, #32]
 1741 0068 64F34513 		bfi	r3, r4, #5, #1
 1742 006c 0362     		str	r3, [r0, #32]
 888:bsp/libraries/drivers/src/at32f435_437_tmr.c ****       tmr_x->cm1_input_bit.c2c    = input_struct->input_mapped_select;
 1743              		.loc 1 888 7 is_stmt 1 view .LVU450
 888:bsp/libraries/drivers/src/at32f435_437_tmr.c ****       tmr_x->cm1_input_bit.c2c    = input_struct->input_mapped_select;
 1744              		.loc 1 888 50 is_stmt 0 view .LVU451
 1745 006e 4B78     		ldrb	r3, [r1, #1]	@ zero_extendqisi2
 888:bsp/libraries/drivers/src/at32f435_437_tmr.c ****       tmr_x->cm1_input_bit.c2c    = input_struct->input_mapped_select;
 1746              		.loc 1 888 81 view .LVU452
 1747 0070 C3F34003 		ubfx	r3, r3, #1, #1
 888:bsp/libraries/drivers/src/at32f435_437_tmr.c ****       tmr_x->cm1_input_bit.c2c    = input_struct->input_mapped_select;
 1748              		.loc 1 888 35 view .LVU453
ARM GAS  C:\Users\user\AppData\Local\Temp\cccs5OkE.s 			page 48


 1749 0074 046A     		ldr	r4, [r0, #32]
 1750 0076 63F3C714 		bfi	r4, r3, #7, #1
 1751 007a 0462     		str	r4, [r0, #32]
 889:bsp/libraries/drivers/src/at32f435_437_tmr.c ****       tmr_x->cm1_input_bit.c2df   = input_struct->input_filter_value;
 1752              		.loc 1 889 7 is_stmt 1 view .LVU454
 889:bsp/libraries/drivers/src/at32f435_437_tmr.c ****       tmr_x->cm1_input_bit.c2df   = input_struct->input_filter_value;
 1753              		.loc 1 889 49 is_stmt 0 view .LVU455
 1754 007c 8C78     		ldrb	r4, [r1, #2]	@ zero_extendqisi2
 889:bsp/libraries/drivers/src/at32f435_437_tmr.c ****       tmr_x->cm1_input_bit.c2df   = input_struct->input_filter_value;
 1755              		.loc 1 889 35 view .LVU456
 1756 007e 8369     		ldr	r3, [r0, #24]
 1757 0080 64F30923 		bfi	r3, r4, #8, #2
 1758 0084 8361     		str	r3, [r0, #24]
 890:bsp/libraries/drivers/src/at32f435_437_tmr.c ****       tmr_x->cm1_input_bit.c2idiv = divider_factor;
 1759              		.loc 1 890 7 is_stmt 1 view .LVU457
 890:bsp/libraries/drivers/src/at32f435_437_tmr.c ****       tmr_x->cm1_input_bit.c2idiv = divider_factor;
 1760              		.loc 1 890 49 is_stmt 0 view .LVU458
 1761 0086 C978     		ldrb	r1, [r1, #3]	@ zero_extendqisi2
 1762              	.LVL136:
 890:bsp/libraries/drivers/src/at32f435_437_tmr.c ****       tmr_x->cm1_input_bit.c2idiv = divider_factor;
 1763              		.loc 1 890 35 view .LVU459
 1764 0088 8369     		ldr	r3, [r0, #24]
 1765 008a 61F30F33 		bfi	r3, r1, #12, #4
 1766 008e 8361     		str	r3, [r0, #24]
 891:bsp/libraries/drivers/src/at32f435_437_tmr.c ****       tmr_x->cctrl_bit.c2en       = TRUE;
 1767              		.loc 1 891 7 is_stmt 1 view .LVU460
 891:bsp/libraries/drivers/src/at32f435_437_tmr.c ****       tmr_x->cctrl_bit.c2en       = TRUE;
 1768              		.loc 1 891 35 is_stmt 0 view .LVU461
 1769 0090 8369     		ldr	r3, [r0, #24]
 1770 0092 62F38B23 		bfi	r3, r2, #10, #2
 1771 0096 8361     		str	r3, [r0, #24]
 892:bsp/libraries/drivers/src/at32f435_437_tmr.c ****       break;
 1772              		.loc 1 892 7 is_stmt 1 view .LVU462
 892:bsp/libraries/drivers/src/at32f435_437_tmr.c ****       break;
 1773              		.loc 1 892 35 is_stmt 0 view .LVU463
 1774 0098 036A     		ldr	r3, [r0, #32]
 1775 009a 43F01003 		orr	r3, r3, #16
 1776 009e 0362     		str	r3, [r0, #32]
 893:bsp/libraries/drivers/src/at32f435_437_tmr.c **** 
 1777              		.loc 1 893 7 is_stmt 1 view .LVU464
 1778 00a0 DAE7     		b	.L115
 1779              	.LVL137:
 1780              	.L119:
 896:bsp/libraries/drivers/src/at32f435_437_tmr.c ****       tmr_x->cctrl_bit.c3p        = (uint32_t)input_struct->input_polarity_select;
 1781              		.loc 1 896 7 view .LVU465
 896:bsp/libraries/drivers/src/at32f435_437_tmr.c ****       tmr_x->cctrl_bit.c3p        = (uint32_t)input_struct->input_polarity_select;
 1782              		.loc 1 896 35 is_stmt 0 view .LVU466
 1783 00a2 036A     		ldr	r3, [r0, #32]
 1784              	.LVL138:
 896:bsp/libraries/drivers/src/at32f435_437_tmr.c ****       tmr_x->cctrl_bit.c3p        = (uint32_t)input_struct->input_polarity_select;
 1785              		.loc 1 896 35 view .LVU467
 1786 00a4 6FF30823 		bfc	r3, #8, #1
 1787 00a8 0362     		str	r3, [r0, #32]
 1788              	.LVL139:
 897:bsp/libraries/drivers/src/at32f435_437_tmr.c ****       tmr_x->cctrl_bit.c3cp       = (input_struct->input_polarity_select & 0x2) >> 1;
 1789              		.loc 1 897 7 is_stmt 1 view .LVU468
 897:bsp/libraries/drivers/src/at32f435_437_tmr.c ****       tmr_x->cctrl_bit.c3cp       = (input_struct->input_polarity_select & 0x2) >> 1;
ARM GAS  C:\Users\user\AppData\Local\Temp\cccs5OkE.s 			page 49


 1790              		.loc 1 897 59 is_stmt 0 view .LVU469
 1791 00aa 4C78     		ldrb	r4, [r1, #1]	@ zero_extendqisi2
 897:bsp/libraries/drivers/src/at32f435_437_tmr.c ****       tmr_x->cctrl_bit.c3cp       = (input_struct->input_polarity_select & 0x2) >> 1;
 1792              		.loc 1 897 35 view .LVU470
 1793 00ac 036A     		ldr	r3, [r0, #32]
 1794 00ae 64F34923 		bfi	r3, r4, #9, #1
 1795 00b2 0362     		str	r3, [r0, #32]
 898:bsp/libraries/drivers/src/at32f435_437_tmr.c ****       tmr_x->cm2_input_bit.c3c    = input_struct->input_mapped_select;
 1796              		.loc 1 898 7 is_stmt 1 view .LVU471
 898:bsp/libraries/drivers/src/at32f435_437_tmr.c ****       tmr_x->cm2_input_bit.c3c    = input_struct->input_mapped_select;
 1797              		.loc 1 898 50 is_stmt 0 view .LVU472
 1798 00b4 4B78     		ldrb	r3, [r1, #1]	@ zero_extendqisi2
 898:bsp/libraries/drivers/src/at32f435_437_tmr.c ****       tmr_x->cm2_input_bit.c3c    = input_struct->input_mapped_select;
 1799              		.loc 1 898 81 view .LVU473
 1800 00b6 C3F34003 		ubfx	r3, r3, #1, #1
 898:bsp/libraries/drivers/src/at32f435_437_tmr.c ****       tmr_x->cm2_input_bit.c3c    = input_struct->input_mapped_select;
 1801              		.loc 1 898 35 view .LVU474
 1802 00ba 046A     		ldr	r4, [r0, #32]
 1803 00bc 63F3CB24 		bfi	r4, r3, #11, #1
 1804 00c0 0462     		str	r4, [r0, #32]
 899:bsp/libraries/drivers/src/at32f435_437_tmr.c ****       tmr_x->cm2_input_bit.c3df   = input_struct->input_filter_value;
 1805              		.loc 1 899 7 is_stmt 1 view .LVU475
 899:bsp/libraries/drivers/src/at32f435_437_tmr.c ****       tmr_x->cm2_input_bit.c3df   = input_struct->input_filter_value;
 1806              		.loc 1 899 49 is_stmt 0 view .LVU476
 1807 00c2 8C78     		ldrb	r4, [r1, #2]	@ zero_extendqisi2
 899:bsp/libraries/drivers/src/at32f435_437_tmr.c ****       tmr_x->cm2_input_bit.c3df   = input_struct->input_filter_value;
 1808              		.loc 1 899 35 view .LVU477
 1809 00c4 C369     		ldr	r3, [r0, #28]
 1810 00c6 64F30103 		bfi	r3, r4, #0, #2
 1811 00ca C361     		str	r3, [r0, #28]
 900:bsp/libraries/drivers/src/at32f435_437_tmr.c ****       tmr_x->cm2_input_bit.c3idiv = divider_factor;
 1812              		.loc 1 900 7 is_stmt 1 view .LVU478
 900:bsp/libraries/drivers/src/at32f435_437_tmr.c ****       tmr_x->cm2_input_bit.c3idiv = divider_factor;
 1813              		.loc 1 900 49 is_stmt 0 view .LVU479
 1814 00cc C978     		ldrb	r1, [r1, #3]	@ zero_extendqisi2
 1815              	.LVL140:
 900:bsp/libraries/drivers/src/at32f435_437_tmr.c ****       tmr_x->cm2_input_bit.c3idiv = divider_factor;
 1816              		.loc 1 900 35 view .LVU480
 1817 00ce C369     		ldr	r3, [r0, #28]
 1818 00d0 61F30713 		bfi	r3, r1, #4, #4
 1819 00d4 C361     		str	r3, [r0, #28]
 901:bsp/libraries/drivers/src/at32f435_437_tmr.c ****       tmr_x->cctrl_bit.c3en       = TRUE;
 1820              		.loc 1 901 7 is_stmt 1 view .LVU481
 901:bsp/libraries/drivers/src/at32f435_437_tmr.c ****       tmr_x->cctrl_bit.c3en       = TRUE;
 1821              		.loc 1 901 35 is_stmt 0 view .LVU482
 1822 00d6 C369     		ldr	r3, [r0, #28]
 1823 00d8 62F38303 		bfi	r3, r2, #2, #2
 1824 00dc C361     		str	r3, [r0, #28]
 902:bsp/libraries/drivers/src/at32f435_437_tmr.c ****       break;
 1825              		.loc 1 902 7 is_stmt 1 view .LVU483
 902:bsp/libraries/drivers/src/at32f435_437_tmr.c ****       break;
 1826              		.loc 1 902 35 is_stmt 0 view .LVU484
 1827 00de 036A     		ldr	r3, [r0, #32]
 1828 00e0 43F48073 		orr	r3, r3, #256
 1829 00e4 0362     		str	r3, [r0, #32]
 903:bsp/libraries/drivers/src/at32f435_437_tmr.c **** 
 1830              		.loc 1 903 7 is_stmt 1 view .LVU485
ARM GAS  C:\Users\user\AppData\Local\Temp\cccs5OkE.s 			page 50


 1831 00e6 B7E7     		b	.L115
 1832              	.LVL141:
 1833              	.L117:
 906:bsp/libraries/drivers/src/at32f435_437_tmr.c ****       tmr_x->cctrl_bit.c4p        = (uint32_t)input_struct->input_polarity_select;
 1834              		.loc 1 906 7 view .LVU486
 906:bsp/libraries/drivers/src/at32f435_437_tmr.c ****       tmr_x->cctrl_bit.c4p        = (uint32_t)input_struct->input_polarity_select;
 1835              		.loc 1 906 35 is_stmt 0 view .LVU487
 1836 00e8 036A     		ldr	r3, [r0, #32]
 1837              	.LVL142:
 906:bsp/libraries/drivers/src/at32f435_437_tmr.c ****       tmr_x->cctrl_bit.c4p        = (uint32_t)input_struct->input_polarity_select;
 1838              		.loc 1 906 35 view .LVU488
 1839 00ea 6FF30C33 		bfc	r3, #12, #1
 1840 00ee 0362     		str	r3, [r0, #32]
 1841              	.LVL143:
 907:bsp/libraries/drivers/src/at32f435_437_tmr.c ****       tmr_x->cm2_input_bit.c4c    = input_struct->input_mapped_select;
 1842              		.loc 1 907 7 is_stmt 1 view .LVU489
 907:bsp/libraries/drivers/src/at32f435_437_tmr.c ****       tmr_x->cm2_input_bit.c4c    = input_struct->input_mapped_select;
 1843              		.loc 1 907 59 is_stmt 0 view .LVU490
 1844 00f0 4C78     		ldrb	r4, [r1, #1]	@ zero_extendqisi2
 907:bsp/libraries/drivers/src/at32f435_437_tmr.c ****       tmr_x->cm2_input_bit.c4c    = input_struct->input_mapped_select;
 1845              		.loc 1 907 35 view .LVU491
 1846 00f2 036A     		ldr	r3, [r0, #32]
 1847 00f4 64F34D33 		bfi	r3, r4, #13, #1
 1848 00f8 0362     		str	r3, [r0, #32]
 908:bsp/libraries/drivers/src/at32f435_437_tmr.c ****       tmr_x->cm2_input_bit.c4df   = input_struct->input_filter_value;
 1849              		.loc 1 908 7 is_stmt 1 view .LVU492
 908:bsp/libraries/drivers/src/at32f435_437_tmr.c ****       tmr_x->cm2_input_bit.c4df   = input_struct->input_filter_value;
 1850              		.loc 1 908 49 is_stmt 0 view .LVU493
 1851 00fa 8C78     		ldrb	r4, [r1, #2]	@ zero_extendqisi2
 908:bsp/libraries/drivers/src/at32f435_437_tmr.c ****       tmr_x->cm2_input_bit.c4df   = input_struct->input_filter_value;
 1852              		.loc 1 908 35 view .LVU494
 1853 00fc C369     		ldr	r3, [r0, #28]
 1854 00fe 64F30923 		bfi	r3, r4, #8, #2
 1855 0102 C361     		str	r3, [r0, #28]
 909:bsp/libraries/drivers/src/at32f435_437_tmr.c ****       tmr_x->cm2_input_bit.c4idiv = divider_factor;
 1856              		.loc 1 909 7 is_stmt 1 view .LVU495
 909:bsp/libraries/drivers/src/at32f435_437_tmr.c ****       tmr_x->cm2_input_bit.c4idiv = divider_factor;
 1857              		.loc 1 909 49 is_stmt 0 view .LVU496
 1858 0104 C978     		ldrb	r1, [r1, #3]	@ zero_extendqisi2
 1859              	.LVL144:
 909:bsp/libraries/drivers/src/at32f435_437_tmr.c ****       tmr_x->cm2_input_bit.c4idiv = divider_factor;
 1860              		.loc 1 909 35 view .LVU497
 1861 0106 C369     		ldr	r3, [r0, #28]
 1862 0108 61F30F33 		bfi	r3, r1, #12, #4
 1863 010c C361     		str	r3, [r0, #28]
 910:bsp/libraries/drivers/src/at32f435_437_tmr.c ****       tmr_x->cctrl_bit.c4en       = TRUE;
 1864              		.loc 1 910 7 is_stmt 1 view .LVU498
 910:bsp/libraries/drivers/src/at32f435_437_tmr.c ****       tmr_x->cctrl_bit.c4en       = TRUE;
 1865              		.loc 1 910 35 is_stmt 0 view .LVU499
 1866 010e C369     		ldr	r3, [r0, #28]
 1867 0110 62F38B23 		bfi	r3, r2, #10, #2
 1868 0114 C361     		str	r3, [r0, #28]
 911:bsp/libraries/drivers/src/at32f435_437_tmr.c ****       break;
 1869              		.loc 1 911 7 is_stmt 1 view .LVU500
 911:bsp/libraries/drivers/src/at32f435_437_tmr.c ****       break;
 1870              		.loc 1 911 35 is_stmt 0 view .LVU501
 1871 0116 036A     		ldr	r3, [r0, #32]
ARM GAS  C:\Users\user\AppData\Local\Temp\cccs5OkE.s 			page 51


 1872 0118 43F48053 		orr	r3, r3, #4096
 1873 011c 0362     		str	r3, [r0, #32]
 912:bsp/libraries/drivers/src/at32f435_437_tmr.c **** 
 1874              		.loc 1 912 7 is_stmt 1 view .LVU502
 1875              		.loc 1 917 1 is_stmt 0 view .LVU503
 1876 011e 9BE7     		b	.L115
 1877              		.cfi_endproc
 1878              	.LFE160:
 1880              		.section	.text.tmr_channel_enable,"ax",%progbits
 1881              		.align	1
 1882              		.global	tmr_channel_enable
 1883              		.syntax unified
 1884              		.thumb
 1885              		.thumb_func
 1887              	tmr_channel_enable:
 1888              	.LVL145:
 1889              	.LFB161:
 918:bsp/libraries/drivers/src/at32f435_437_tmr.c **** 
 919:bsp/libraries/drivers/src/at32f435_437_tmr.c **** /**
 920:bsp/libraries/drivers/src/at32f435_437_tmr.c ****   * @brief  tmr channel enable
 921:bsp/libraries/drivers/src/at32f435_437_tmr.c ****   * @param  tmr_x: select the tmr peripheral.
 922:bsp/libraries/drivers/src/at32f435_437_tmr.c ****   *         this parameter can be one of the following values:
 923:bsp/libraries/drivers/src/at32f435_437_tmr.c ****   *         TMR1, TMR2, TMR3, TMR4, TMR5, TMR8, TMR9, TMR10,
 924:bsp/libraries/drivers/src/at32f435_437_tmr.c ****   *         TMR11, TMR12, TMR13, TMR14, TMR20
 925:bsp/libraries/drivers/src/at32f435_437_tmr.c ****   * @param  tmr_channel
 926:bsp/libraries/drivers/src/at32f435_437_tmr.c ****   *         this parameter can be one of the following values:
 927:bsp/libraries/drivers/src/at32f435_437_tmr.c ****   *         - TMR_SELECT_CHANNEL_1
 928:bsp/libraries/drivers/src/at32f435_437_tmr.c ****   *         - TMR_SELECT_CHANNEL_1C
 929:bsp/libraries/drivers/src/at32f435_437_tmr.c ****   *         - TMR_SELECT_CHANNEL_2
 930:bsp/libraries/drivers/src/at32f435_437_tmr.c ****   *         - TMR_SELECT_CHANNEL_2C
 931:bsp/libraries/drivers/src/at32f435_437_tmr.c ****   *         - TMR_SELECT_CHANNEL_3
 932:bsp/libraries/drivers/src/at32f435_437_tmr.c ****   *         - TMR_SELECT_CHANNEL_3C
 933:bsp/libraries/drivers/src/at32f435_437_tmr.c ****   *         - TMR_SELECT_CHANNEL_4
 934:bsp/libraries/drivers/src/at32f435_437_tmr.c ****   * @param  new_state (TRUE or FALSE)
 935:bsp/libraries/drivers/src/at32f435_437_tmr.c ****   * @retval none
 936:bsp/libraries/drivers/src/at32f435_437_tmr.c ****   */
 937:bsp/libraries/drivers/src/at32f435_437_tmr.c **** void tmr_channel_enable(tmr_type *tmr_x, tmr_channel_select_type tmr_channel, confirm_state new_sta
 938:bsp/libraries/drivers/src/at32f435_437_tmr.c **** {
 1890              		.loc 1 938 1 is_stmt 1 view -0
 1891              		.cfi_startproc
 1892              		@ args = 0, pretend = 0, frame = 0
 1893              		@ frame_needed = 0, uses_anonymous_args = 0
 1894              		@ link register save eliminated.
 939:bsp/libraries/drivers/src/at32f435_437_tmr.c ****   uint16_t channel;
 1895              		.loc 1 939 3 view .LVU505
 940:bsp/libraries/drivers/src/at32f435_437_tmr.c **** 
 941:bsp/libraries/drivers/src/at32f435_437_tmr.c ****   channel = tmr_channel;
 1896              		.loc 1 941 3 view .LVU506
 942:bsp/libraries/drivers/src/at32f435_437_tmr.c **** 
 943:bsp/libraries/drivers/src/at32f435_437_tmr.c ****   switch(channel)
 1897              		.loc 1 943 3 view .LVU507
 1898 0000 0629     		cmp	r1, #6
 1899 0002 27D8     		bhi	.L123
 1900 0004 DFE801F0 		tbb	[pc, r1]
 1901              	.L126:
 1902 0008 04       		.byte	(.L132-.L126)/2
 1903 0009 09       		.byte	(.L131-.L126)/2
ARM GAS  C:\Users\user\AppData\Local\Temp\cccs5OkE.s 			page 52


 1904 000a 0E       		.byte	(.L130-.L126)/2
 1905 000b 13       		.byte	(.L129-.L126)/2
 1906 000c 18       		.byte	(.L128-.L126)/2
 1907 000d 1D       		.byte	(.L127-.L126)/2
 1908 000e 22       		.byte	(.L125-.L126)/2
 1909 000f 00       		.p2align 1
 1910              	.L132:
 944:bsp/libraries/drivers/src/at32f435_437_tmr.c ****   {
 945:bsp/libraries/drivers/src/at32f435_437_tmr.c ****     case TMR_SELECT_CHANNEL_1:
 946:bsp/libraries/drivers/src/at32f435_437_tmr.c ****       tmr_x->cctrl_bit.c1en         = new_state;
 1911              		.loc 1 946 7 view .LVU508
 1912              		.loc 1 946 37 is_stmt 0 view .LVU509
 1913 0010 036A     		ldr	r3, [r0, #32]
 1914 0012 62F30003 		bfi	r3, r2, #0, #1
 1915 0016 0362     		str	r3, [r0, #32]
 947:bsp/libraries/drivers/src/at32f435_437_tmr.c ****       break;
 1916              		.loc 1 947 7 is_stmt 1 view .LVU510
 1917 0018 7047     		bx	lr
 1918              	.L131:
 948:bsp/libraries/drivers/src/at32f435_437_tmr.c **** 
 949:bsp/libraries/drivers/src/at32f435_437_tmr.c ****     case TMR_SELECT_CHANNEL_1C:
 950:bsp/libraries/drivers/src/at32f435_437_tmr.c ****       tmr_x->cctrl_bit.c1cen        = new_state;
 1919              		.loc 1 950 7 view .LVU511
 1920              		.loc 1 950 37 is_stmt 0 view .LVU512
 1921 001a 036A     		ldr	r3, [r0, #32]
 1922 001c 62F38203 		bfi	r3, r2, #2, #1
 1923 0020 0362     		str	r3, [r0, #32]
 951:bsp/libraries/drivers/src/at32f435_437_tmr.c ****       break;
 1924              		.loc 1 951 7 is_stmt 1 view .LVU513
 1925 0022 7047     		bx	lr
 1926              	.L130:
 952:bsp/libraries/drivers/src/at32f435_437_tmr.c **** 
 953:bsp/libraries/drivers/src/at32f435_437_tmr.c ****     case TMR_SELECT_CHANNEL_2:
 954:bsp/libraries/drivers/src/at32f435_437_tmr.c ****       tmr_x->cctrl_bit.c2en         = new_state;
 1927              		.loc 1 954 7 view .LVU514
 1928              		.loc 1 954 37 is_stmt 0 view .LVU515
 1929 0024 036A     		ldr	r3, [r0, #32]
 1930 0026 62F30413 		bfi	r3, r2, #4, #1
 1931 002a 0362     		str	r3, [r0, #32]
 955:bsp/libraries/drivers/src/at32f435_437_tmr.c ****       break;
 1932              		.loc 1 955 7 is_stmt 1 view .LVU516
 1933 002c 7047     		bx	lr
 1934              	.L129:
 956:bsp/libraries/drivers/src/at32f435_437_tmr.c **** 
 957:bsp/libraries/drivers/src/at32f435_437_tmr.c ****     case TMR_SELECT_CHANNEL_2C:
 958:bsp/libraries/drivers/src/at32f435_437_tmr.c ****       tmr_x->cctrl_bit.c2cen        = new_state;
 1935              		.loc 1 958 7 view .LVU517
 1936              		.loc 1 958 37 is_stmt 0 view .LVU518
 1937 002e 036A     		ldr	r3, [r0, #32]
 1938 0030 62F38613 		bfi	r3, r2, #6, #1
 1939 0034 0362     		str	r3, [r0, #32]
 959:bsp/libraries/drivers/src/at32f435_437_tmr.c ****       break;
 1940              		.loc 1 959 7 is_stmt 1 view .LVU519
 1941 0036 7047     		bx	lr
 1942              	.L128:
 960:bsp/libraries/drivers/src/at32f435_437_tmr.c **** 
 961:bsp/libraries/drivers/src/at32f435_437_tmr.c ****     case TMR_SELECT_CHANNEL_3:
ARM GAS  C:\Users\user\AppData\Local\Temp\cccs5OkE.s 			page 53


 962:bsp/libraries/drivers/src/at32f435_437_tmr.c ****       tmr_x->cctrl_bit.c3en         = new_state;
 1943              		.loc 1 962 7 view .LVU520
 1944              		.loc 1 962 37 is_stmt 0 view .LVU521
 1945 0038 036A     		ldr	r3, [r0, #32]
 1946 003a 62F30823 		bfi	r3, r2, #8, #1
 1947 003e 0362     		str	r3, [r0, #32]
 963:bsp/libraries/drivers/src/at32f435_437_tmr.c ****       break;
 1948              		.loc 1 963 7 is_stmt 1 view .LVU522
 1949 0040 7047     		bx	lr
 1950              	.L127:
 964:bsp/libraries/drivers/src/at32f435_437_tmr.c **** 
 965:bsp/libraries/drivers/src/at32f435_437_tmr.c ****     case TMR_SELECT_CHANNEL_3C:
 966:bsp/libraries/drivers/src/at32f435_437_tmr.c ****       tmr_x->cctrl_bit.c3cen        = new_state;
 1951              		.loc 1 966 7 view .LVU523
 1952              		.loc 1 966 37 is_stmt 0 view .LVU524
 1953 0042 036A     		ldr	r3, [r0, #32]
 1954 0044 62F38A23 		bfi	r3, r2, #10, #1
 1955 0048 0362     		str	r3, [r0, #32]
 967:bsp/libraries/drivers/src/at32f435_437_tmr.c ****       break;
 1956              		.loc 1 967 7 is_stmt 1 view .LVU525
 1957 004a 7047     		bx	lr
 1958              	.L125:
 968:bsp/libraries/drivers/src/at32f435_437_tmr.c **** 
 969:bsp/libraries/drivers/src/at32f435_437_tmr.c ****     case TMR_SELECT_CHANNEL_4:
 970:bsp/libraries/drivers/src/at32f435_437_tmr.c ****       tmr_x->cctrl_bit.c4en         = new_state;
 1959              		.loc 1 970 7 view .LVU526
 1960              		.loc 1 970 37 is_stmt 0 view .LVU527
 1961 004c 036A     		ldr	r3, [r0, #32]
 1962 004e 62F30C33 		bfi	r3, r2, #12, #1
 1963 0052 0362     		str	r3, [r0, #32]
 971:bsp/libraries/drivers/src/at32f435_437_tmr.c ****       break;
 1964              		.loc 1 971 7 is_stmt 1 view .LVU528
 1965              	.L123:
 972:bsp/libraries/drivers/src/at32f435_437_tmr.c **** 
 973:bsp/libraries/drivers/src/at32f435_437_tmr.c ****     default:
 974:bsp/libraries/drivers/src/at32f435_437_tmr.c ****       break;
 975:bsp/libraries/drivers/src/at32f435_437_tmr.c ****   }
 976:bsp/libraries/drivers/src/at32f435_437_tmr.c **** }
 1966              		.loc 1 976 1 is_stmt 0 view .LVU529
 1967 0054 7047     		bx	lr
 1968              		.cfi_endproc
 1969              	.LFE161:
 1971              		.section	.text.tmr_input_channel_filter_set,"ax",%progbits
 1972              		.align	1
 1973              		.global	tmr_input_channel_filter_set
 1974              		.syntax unified
 1975              		.thumb
 1976              		.thumb_func
 1978              	tmr_input_channel_filter_set:
 1979              	.LVL146:
 1980              	.LFB162:
 977:bsp/libraries/drivers/src/at32f435_437_tmr.c **** 
 978:bsp/libraries/drivers/src/at32f435_437_tmr.c **** /**
 979:bsp/libraries/drivers/src/at32f435_437_tmr.c ****   * @brief  set tmr input channel filter
 980:bsp/libraries/drivers/src/at32f435_437_tmr.c ****   * @param  tmr_x: select the tmr peripheral.
 981:bsp/libraries/drivers/src/at32f435_437_tmr.c ****   *         this parameter can be one of the following values:
 982:bsp/libraries/drivers/src/at32f435_437_tmr.c ****   *         TMR1, TMR2, TMR3, TMR4, TMR5, TMR8, TMR9, TMR10,
ARM GAS  C:\Users\user\AppData\Local\Temp\cccs5OkE.s 			page 54


 983:bsp/libraries/drivers/src/at32f435_437_tmr.c ****   *         TMR11, TMR12, TMR13, TMR14, TMR20
 984:bsp/libraries/drivers/src/at32f435_437_tmr.c ****   * @param  tmr_channel
 985:bsp/libraries/drivers/src/at32f435_437_tmr.c ****   *         this parameter can be one of the following values:
 986:bsp/libraries/drivers/src/at32f435_437_tmr.c ****   *         - TMR_SELECT_CHANNEL_1
 987:bsp/libraries/drivers/src/at32f435_437_tmr.c ****   *         - TMR_SELECT_CHANNEL_2
 988:bsp/libraries/drivers/src/at32f435_437_tmr.c ****   *         - TMR_SELECT_CHANNEL_3
 989:bsp/libraries/drivers/src/at32f435_437_tmr.c ****   *         - TMR_SELECT_CHANNEL_4
 990:bsp/libraries/drivers/src/at32f435_437_tmr.c ****   * @param  filter_value (0x0~0xf)
 991:bsp/libraries/drivers/src/at32f435_437_tmr.c ****   * @retval none
 992:bsp/libraries/drivers/src/at32f435_437_tmr.c ****   */
 993:bsp/libraries/drivers/src/at32f435_437_tmr.c **** void tmr_input_channel_filter_set(tmr_type *tmr_x, tmr_channel_select_type tmr_channel, \
 994:bsp/libraries/drivers/src/at32f435_437_tmr.c ****                                   uint16_t filter_value)
 995:bsp/libraries/drivers/src/at32f435_437_tmr.c **** {
 1981              		.loc 1 995 1 is_stmt 1 view -0
 1982              		.cfi_startproc
 1983              		@ args = 0, pretend = 0, frame = 0
 1984              		@ frame_needed = 0, uses_anonymous_args = 0
 1985              		@ link register save eliminated.
 996:bsp/libraries/drivers/src/at32f435_437_tmr.c ****   uint16_t channel;
 1986              		.loc 1 996 3 view .LVU531
 997:bsp/libraries/drivers/src/at32f435_437_tmr.c **** 
 998:bsp/libraries/drivers/src/at32f435_437_tmr.c ****   channel = tmr_channel;
 1987              		.loc 1 998 3 view .LVU532
 999:bsp/libraries/drivers/src/at32f435_437_tmr.c **** 
1000:bsp/libraries/drivers/src/at32f435_437_tmr.c ****   switch(channel)
 1988              		.loc 1 1000 3 view .LVU533
 1989 0000 0629     		cmp	r1, #6
 1990 0002 18D8     		bhi	.L133
 1991 0004 DFE801F0 		tbb	[pc, r1]
 1992              	.L136:
 1993 0008 04       		.byte	(.L139-.L136)/2
 1994 0009 17       		.byte	(.L133-.L136)/2
 1995 000a 09       		.byte	(.L138-.L136)/2
 1996 000b 17       		.byte	(.L133-.L136)/2
 1997 000c 0E       		.byte	(.L137-.L136)/2
 1998 000d 17       		.byte	(.L133-.L136)/2
 1999 000e 13       		.byte	(.L135-.L136)/2
 2000 000f 00       		.p2align 1
 2001              	.L139:
1001:bsp/libraries/drivers/src/at32f435_437_tmr.c ****   {
1002:bsp/libraries/drivers/src/at32f435_437_tmr.c ****     case TMR_SELECT_CHANNEL_1:
1003:bsp/libraries/drivers/src/at32f435_437_tmr.c ****       tmr_x->cm1_input_bit.c1df = filter_value;
 2002              		.loc 1 1003 7 view .LVU534
 2003              		.loc 1 1003 33 is_stmt 0 view .LVU535
 2004 0010 8369     		ldr	r3, [r0, #24]
 2005 0012 62F30713 		bfi	r3, r2, #4, #4
 2006 0016 8361     		str	r3, [r0, #24]
1004:bsp/libraries/drivers/src/at32f435_437_tmr.c ****       break;
 2007              		.loc 1 1004 7 is_stmt 1 view .LVU536
 2008 0018 7047     		bx	lr
 2009              	.L138:
1005:bsp/libraries/drivers/src/at32f435_437_tmr.c **** 
1006:bsp/libraries/drivers/src/at32f435_437_tmr.c ****     case TMR_SELECT_CHANNEL_2:
1007:bsp/libraries/drivers/src/at32f435_437_tmr.c ****       tmr_x->cm1_input_bit.c2df = filter_value;
 2010              		.loc 1 1007 7 view .LVU537
 2011              		.loc 1 1007 33 is_stmt 0 view .LVU538
 2012 001a 8369     		ldr	r3, [r0, #24]
ARM GAS  C:\Users\user\AppData\Local\Temp\cccs5OkE.s 			page 55


 2013 001c 62F30F33 		bfi	r3, r2, #12, #4
 2014 0020 8361     		str	r3, [r0, #24]
1008:bsp/libraries/drivers/src/at32f435_437_tmr.c ****       break;
 2015              		.loc 1 1008 7 is_stmt 1 view .LVU539
 2016 0022 7047     		bx	lr
 2017              	.L137:
1009:bsp/libraries/drivers/src/at32f435_437_tmr.c **** 
1010:bsp/libraries/drivers/src/at32f435_437_tmr.c ****     case TMR_SELECT_CHANNEL_3:
1011:bsp/libraries/drivers/src/at32f435_437_tmr.c ****       tmr_x->cm2_input_bit.c3df = filter_value;
 2018              		.loc 1 1011 7 view .LVU540
 2019              		.loc 1 1011 33 is_stmt 0 view .LVU541
 2020 0024 C369     		ldr	r3, [r0, #28]
 2021 0026 62F30713 		bfi	r3, r2, #4, #4
 2022 002a C361     		str	r3, [r0, #28]
1012:bsp/libraries/drivers/src/at32f435_437_tmr.c ****       break;
 2023              		.loc 1 1012 7 is_stmt 1 view .LVU542
 2024 002c 7047     		bx	lr
 2025              	.L135:
1013:bsp/libraries/drivers/src/at32f435_437_tmr.c **** 
1014:bsp/libraries/drivers/src/at32f435_437_tmr.c ****     case TMR_SELECT_CHANNEL_4:
1015:bsp/libraries/drivers/src/at32f435_437_tmr.c ****       tmr_x->cm2_input_bit.c4df = filter_value;
 2026              		.loc 1 1015 7 view .LVU543
 2027              		.loc 1 1015 33 is_stmt 0 view .LVU544
 2028 002e C369     		ldr	r3, [r0, #28]
 2029 0030 62F30F33 		bfi	r3, r2, #12, #4
 2030 0034 C361     		str	r3, [r0, #28]
1016:bsp/libraries/drivers/src/at32f435_437_tmr.c ****       break;
 2031              		.loc 1 1016 7 is_stmt 1 view .LVU545
 2032              	.L133:
1017:bsp/libraries/drivers/src/at32f435_437_tmr.c **** 
1018:bsp/libraries/drivers/src/at32f435_437_tmr.c ****     default:
1019:bsp/libraries/drivers/src/at32f435_437_tmr.c ****       break;
1020:bsp/libraries/drivers/src/at32f435_437_tmr.c ****   }
1021:bsp/libraries/drivers/src/at32f435_437_tmr.c **** }
 2033              		.loc 1 1021 1 is_stmt 0 view .LVU546
 2034 0036 7047     		bx	lr
 2035              		.cfi_endproc
 2036              	.LFE162:
 2038              		.section	.text.tmr_pwm_input_config,"ax",%progbits
 2039              		.align	1
 2040              		.global	tmr_pwm_input_config
 2041              		.syntax unified
 2042              		.thumb
 2043              		.thumb_func
 2045              	tmr_pwm_input_config:
 2046              	.LVL147:
 2047              	.LFB163:
1022:bsp/libraries/drivers/src/at32f435_437_tmr.c **** 
1023:bsp/libraries/drivers/src/at32f435_437_tmr.c **** /**
1024:bsp/libraries/drivers/src/at32f435_437_tmr.c ****   * @brief  config tmr pwm input
1025:bsp/libraries/drivers/src/at32f435_437_tmr.c ****   * @param  tmr_x: select the tmr peripheral.
1026:bsp/libraries/drivers/src/at32f435_437_tmr.c ****   *         this parameter can be one of the following values:
1027:bsp/libraries/drivers/src/at32f435_437_tmr.c ****   *         TMR1, TMR2, TMR3, TMR4, TMR5, TMR8, TMR9, TMR10,
1028:bsp/libraries/drivers/src/at32f435_437_tmr.c ****   *         TMR11, TMR12, TMR13, TMR14, TMR20
1029:bsp/libraries/drivers/src/at32f435_437_tmr.c ****   * @param  input_struct
1030:bsp/libraries/drivers/src/at32f435_437_tmr.c ****   *         - to the structure of tmr_input_config_type
1031:bsp/libraries/drivers/src/at32f435_437_tmr.c ****   * @param  divider_factor
ARM GAS  C:\Users\user\AppData\Local\Temp\cccs5OkE.s 			page 56


1032:bsp/libraries/drivers/src/at32f435_437_tmr.c ****   *         this parameter can be one of the following values:
1033:bsp/libraries/drivers/src/at32f435_437_tmr.c ****   *         - TMR_CHANNEL_INPUT_DIV_1
1034:bsp/libraries/drivers/src/at32f435_437_tmr.c ****   *         - TMR_CHANNEL_INPUT_DIV_2
1035:bsp/libraries/drivers/src/at32f435_437_tmr.c ****   *         - TMR_CHANNEL_INPUT_DIV_4
1036:bsp/libraries/drivers/src/at32f435_437_tmr.c ****   *         - TMR_CHANNEL_INPUT_DIV_8
1037:bsp/libraries/drivers/src/at32f435_437_tmr.c ****   * @retval none
1038:bsp/libraries/drivers/src/at32f435_437_tmr.c ****   */
1039:bsp/libraries/drivers/src/at32f435_437_tmr.c **** void tmr_pwm_input_config(tmr_type *tmr_x, tmr_input_config_type *input_struct, \
1040:bsp/libraries/drivers/src/at32f435_437_tmr.c ****                           tmr_channel_input_divider_type divider_factor)
1041:bsp/libraries/drivers/src/at32f435_437_tmr.c **** {
 2048              		.loc 1 1041 1 is_stmt 1 view -0
 2049              		.cfi_startproc
 2050              		@ args = 0, pretend = 0, frame = 0
 2051              		@ frame_needed = 0, uses_anonymous_args = 0
 2052              		@ link register save eliminated.
1042:bsp/libraries/drivers/src/at32f435_437_tmr.c ****   uint16_t channel = 0;
 2053              		.loc 1 1042 3 view .LVU548
1043:bsp/libraries/drivers/src/at32f435_437_tmr.c **** 
1044:bsp/libraries/drivers/src/at32f435_437_tmr.c ****   /* get channel selected */
1045:bsp/libraries/drivers/src/at32f435_437_tmr.c ****   channel = input_struct->input_channel_select;
 2054              		.loc 1 1045 3 view .LVU549
 2055              		.loc 1 1045 25 is_stmt 0 view .LVU550
 2056 0000 0B78     		ldrb	r3, [r1]	@ zero_extendqisi2
 2057              	.LVL148:
1046:bsp/libraries/drivers/src/at32f435_437_tmr.c **** 
1047:bsp/libraries/drivers/src/at32f435_437_tmr.c ****   switch(channel)
 2058              		.loc 1 1047 3 is_stmt 1 view .LVU551
 2059 0002 13B1     		cbz	r3, .L141
 2060 0004 022B     		cmp	r3, #2
 2061 0006 52D0     		beq	.L142
 2062 0008 7047     		bx	lr
 2063              	.L141:
1048:bsp/libraries/drivers/src/at32f435_437_tmr.c ****   {
1049:bsp/libraries/drivers/src/at32f435_437_tmr.c ****     case TMR_SELECT_CHANNEL_1:
1050:bsp/libraries/drivers/src/at32f435_437_tmr.c ****       if(input_struct->input_polarity_select == TMR_INPUT_RISING_EDGE)
 2064              		.loc 1 1050 7 view .LVU552
 2065              		.loc 1 1050 22 is_stmt 0 view .LVU553
 2066 000a 4B78     		ldrb	r3, [r1, #1]	@ zero_extendqisi2
 2067              	.LVL149:
 2068              		.loc 1 1050 9 view .LVU554
 2069 000c 53BB     		cbnz	r3, .L144
1051:bsp/libraries/drivers/src/at32f435_437_tmr.c ****       {
1052:bsp/libraries/drivers/src/at32f435_437_tmr.c ****         /* set channel polarity */
1053:bsp/libraries/drivers/src/at32f435_437_tmr.c ****         tmr_x->cctrl_bit.c1p          = TMR_INPUT_RISING_EDGE;
 2070              		.loc 1 1053 9 is_stmt 1 view .LVU555
 2071              		.loc 1 1053 39 is_stmt 0 view .LVU556
 2072 000e 036A     		ldr	r3, [r0, #32]
 2073 0010 6FF34103 		bfc	r3, #1, #1
 2074 0014 0362     		str	r3, [r0, #32]
 2075              	.LVL150:
1054:bsp/libraries/drivers/src/at32f435_437_tmr.c ****         tmr_x->cctrl_bit.c2p          = TMR_INPUT_FALLING_EDGE;
 2076              		.loc 1 1054 9 is_stmt 1 view .LVU557
 2077              		.loc 1 1054 39 is_stmt 0 view .LVU558
 2078 0016 036A     		ldr	r3, [r0, #32]
 2079 0018 43F02003 		orr	r3, r3, #32
 2080 001c 0362     		str	r3, [r0, #32]
 2081              	.L145:
ARM GAS  C:\Users\user\AppData\Local\Temp\cccs5OkE.s 			page 57


1055:bsp/libraries/drivers/src/at32f435_437_tmr.c ****       }
1056:bsp/libraries/drivers/src/at32f435_437_tmr.c ****       else if(input_struct->input_polarity_select == TMR_INPUT_FALLING_EDGE)
1057:bsp/libraries/drivers/src/at32f435_437_tmr.c ****       {
1058:bsp/libraries/drivers/src/at32f435_437_tmr.c ****         /* set channel polarity */
1059:bsp/libraries/drivers/src/at32f435_437_tmr.c ****         tmr_x->cctrl_bit.c1p          = TMR_INPUT_FALLING_EDGE;
1060:bsp/libraries/drivers/src/at32f435_437_tmr.c ****         tmr_x->cctrl_bit.c2p          = TMR_INPUT_RISING_EDGE;
1061:bsp/libraries/drivers/src/at32f435_437_tmr.c ****       }
1062:bsp/libraries/drivers/src/at32f435_437_tmr.c **** 
1063:bsp/libraries/drivers/src/at32f435_437_tmr.c ****       if(input_struct->input_mapped_select == TMR_CC_CHANNEL_MAPPED_DIRECT)
 2082              		.loc 1 1063 7 is_stmt 1 view .LVU559
 2083              		.loc 1 1063 22 is_stmt 0 view .LVU560
 2084 001e 8B78     		ldrb	r3, [r1, #2]	@ zero_extendqisi2
 2085              		.loc 1 1063 9 view .LVU561
 2086 0020 012B     		cmp	r3, #1
 2087 0022 2AD0     		beq	.L152
1064:bsp/libraries/drivers/src/at32f435_437_tmr.c ****       {
1065:bsp/libraries/drivers/src/at32f435_437_tmr.c ****         /* ic1 is mapped on ti1 */
1066:bsp/libraries/drivers/src/at32f435_437_tmr.c ****         tmr_x->cm1_input_bit.c1c = TMR_CC_CHANNEL_MAPPED_DIRECT;
1067:bsp/libraries/drivers/src/at32f435_437_tmr.c **** 
1068:bsp/libraries/drivers/src/at32f435_437_tmr.c ****         /* ic1 is mapped on ti2 */
1069:bsp/libraries/drivers/src/at32f435_437_tmr.c ****         tmr_x->cm1_input_bit.c2c = TMR_CC_CHANNEL_MAPPED_INDIRECT;
1070:bsp/libraries/drivers/src/at32f435_437_tmr.c ****       }
1071:bsp/libraries/drivers/src/at32f435_437_tmr.c ****       else if(input_struct->input_mapped_select == TMR_CC_CHANNEL_MAPPED_INDIRECT)
 2088              		.loc 1 1071 12 is_stmt 1 view .LVU562
 2089              		.loc 1 1071 14 is_stmt 0 view .LVU563
 2090 0024 022B     		cmp	r3, #2
 2091 0026 35D0     		beq	.L153
 2092              	.L147:
1072:bsp/libraries/drivers/src/at32f435_437_tmr.c ****       {
1073:bsp/libraries/drivers/src/at32f435_437_tmr.c ****         /* ic1 is mapped on ti1 */
1074:bsp/libraries/drivers/src/at32f435_437_tmr.c ****         tmr_x->cm1_input_bit.c1c = TMR_CC_CHANNEL_MAPPED_INDIRECT;
1075:bsp/libraries/drivers/src/at32f435_437_tmr.c **** 
1076:bsp/libraries/drivers/src/at32f435_437_tmr.c ****         /* ic1 is mapped on ti2 */
1077:bsp/libraries/drivers/src/at32f435_437_tmr.c ****         tmr_x->cm1_input_bit.c2c = TMR_CC_CHANNEL_MAPPED_DIRECT;
1078:bsp/libraries/drivers/src/at32f435_437_tmr.c ****       }
1079:bsp/libraries/drivers/src/at32f435_437_tmr.c **** 
1080:bsp/libraries/drivers/src/at32f435_437_tmr.c ****       /* set input ch1 and ch2 filter value*/
1081:bsp/libraries/drivers/src/at32f435_437_tmr.c ****       tmr_x->cm1_input_bit.c1df = input_struct->input_filter_value;
 2093              		.loc 1 1081 7 is_stmt 1 view .LVU564
 2094              		.loc 1 1081 47 is_stmt 0 view .LVU565
 2095 0028 91F803C0 		ldrb	ip, [r1, #3]	@ zero_extendqisi2
 2096              		.loc 1 1081 33 view .LVU566
 2097 002c 8369     		ldr	r3, [r0, #24]
 2098 002e 6CF30713 		bfi	r3, ip, #4, #4
 2099 0032 8361     		str	r3, [r0, #24]
1082:bsp/libraries/drivers/src/at32f435_437_tmr.c ****       tmr_x->cm1_input_bit.c2df = input_struct->input_filter_value;
 2100              		.loc 1 1082 7 is_stmt 1 view .LVU567
 2101              		.loc 1 1082 47 is_stmt 0 view .LVU568
 2102 0034 C978     		ldrb	r1, [r1, #3]	@ zero_extendqisi2
 2103              	.LVL151:
 2104              		.loc 1 1082 33 view .LVU569
 2105 0036 8369     		ldr	r3, [r0, #24]
 2106 0038 61F30F33 		bfi	r3, r1, #12, #4
 2107 003c 8361     		str	r3, [r0, #24]
1083:bsp/libraries/drivers/src/at32f435_437_tmr.c **** 
1084:bsp/libraries/drivers/src/at32f435_437_tmr.c ****       /*set input ch1 and ch2 divider value*/
1085:bsp/libraries/drivers/src/at32f435_437_tmr.c ****       tmr_x->cm1_input_bit.c1idiv = divider_factor;
ARM GAS  C:\Users\user\AppData\Local\Temp\cccs5OkE.s 			page 58


 2108              		.loc 1 1085 7 is_stmt 1 view .LVU570
 2109              		.loc 1 1085 35 is_stmt 0 view .LVU571
 2110 003e 02F00302 		and	r2, r2, #3
 2111              	.LVL152:
 2112              		.loc 1 1085 35 view .LVU572
 2113 0042 8369     		ldr	r3, [r0, #24]
 2114 0044 62F38303 		bfi	r3, r2, #2, #2
 2115 0048 8361     		str	r3, [r0, #24]
1086:bsp/libraries/drivers/src/at32f435_437_tmr.c ****       tmr_x->cm1_input_bit.c2idiv = divider_factor;
 2116              		.loc 1 1086 7 is_stmt 1 view .LVU573
 2117              		.loc 1 1086 35 is_stmt 0 view .LVU574
 2118 004a 8369     		ldr	r3, [r0, #24]
 2119 004c 62F38B23 		bfi	r3, r2, #10, #2
 2120 0050 8361     		str	r3, [r0, #24]
1087:bsp/libraries/drivers/src/at32f435_437_tmr.c **** 
1088:bsp/libraries/drivers/src/at32f435_437_tmr.c ****       tmr_x->cctrl_bit.c1en = TRUE;
 2121              		.loc 1 1088 7 is_stmt 1 view .LVU575
 2122              		.loc 1 1088 29 is_stmt 0 view .LVU576
 2123 0052 036A     		ldr	r3, [r0, #32]
 2124 0054 43F00103 		orr	r3, r3, #1
 2125 0058 0362     		str	r3, [r0, #32]
1089:bsp/libraries/drivers/src/at32f435_437_tmr.c ****       tmr_x->cctrl_bit.c2en = TRUE;
 2126              		.loc 1 1089 7 is_stmt 1 view .LVU577
 2127              		.loc 1 1089 29 is_stmt 0 view .LVU578
 2128 005a 036A     		ldr	r3, [r0, #32]
 2129 005c 43F01003 		orr	r3, r3, #16
 2130 0060 0362     		str	r3, [r0, #32]
1090:bsp/libraries/drivers/src/at32f435_437_tmr.c ****       break;
 2131              		.loc 1 1090 7 is_stmt 1 view .LVU579
 2132 0062 7047     		bx	lr
 2133              	.LVL153:
 2134              	.L144:
1056:bsp/libraries/drivers/src/at32f435_437_tmr.c ****       {
 2135              		.loc 1 1056 12 view .LVU580
1056:bsp/libraries/drivers/src/at32f435_437_tmr.c ****       {
 2136              		.loc 1 1056 14 is_stmt 0 view .LVU581
 2137 0064 012B     		cmp	r3, #1
 2138 0066 DAD1     		bne	.L145
1059:bsp/libraries/drivers/src/at32f435_437_tmr.c ****         tmr_x->cctrl_bit.c2p          = TMR_INPUT_RISING_EDGE;
 2139              		.loc 1 1059 9 is_stmt 1 view .LVU582
1059:bsp/libraries/drivers/src/at32f435_437_tmr.c ****         tmr_x->cctrl_bit.c2p          = TMR_INPUT_RISING_EDGE;
 2140              		.loc 1 1059 39 is_stmt 0 view .LVU583
 2141 0068 036A     		ldr	r3, [r0, #32]
 2142 006a 43F00203 		orr	r3, r3, #2
 2143 006e 0362     		str	r3, [r0, #32]
 2144              	.LVL154:
1060:bsp/libraries/drivers/src/at32f435_437_tmr.c ****       }
 2145              		.loc 1 1060 9 is_stmt 1 view .LVU584
1060:bsp/libraries/drivers/src/at32f435_437_tmr.c ****       }
 2146              		.loc 1 1060 39 is_stmt 0 view .LVU585
 2147 0070 036A     		ldr	r3, [r0, #32]
 2148 0072 6FF34513 		bfc	r3, #5, #1
 2149 0076 0362     		str	r3, [r0, #32]
 2150 0078 D1E7     		b	.L145
 2151              	.L152:
1066:bsp/libraries/drivers/src/at32f435_437_tmr.c **** 
 2152              		.loc 1 1066 9 is_stmt 1 view .LVU586
ARM GAS  C:\Users\user\AppData\Local\Temp\cccs5OkE.s 			page 59


1066:bsp/libraries/drivers/src/at32f435_437_tmr.c **** 
 2153              		.loc 1 1066 34 is_stmt 0 view .LVU587
 2154 007a 8369     		ldr	r3, [r0, #24]
 2155 007c 4FF0010C 		mov	ip, #1
 2156 0080 6CF30103 		bfi	r3, ip, #0, #2
 2157 0084 8361     		str	r3, [r0, #24]
1069:bsp/libraries/drivers/src/at32f435_437_tmr.c ****       }
 2158              		.loc 1 1069 9 is_stmt 1 view .LVU588
1069:bsp/libraries/drivers/src/at32f435_437_tmr.c ****       }
 2159              		.loc 1 1069 34 is_stmt 0 view .LVU589
 2160 0086 8369     		ldr	r3, [r0, #24]
 2161 0088 4FF0020C 		mov	ip, #2
 2162 008c 6CF30923 		bfi	r3, ip, #8, #2
 2163 0090 8361     		str	r3, [r0, #24]
 2164 0092 C9E7     		b	.L147
 2165              	.L153:
1074:bsp/libraries/drivers/src/at32f435_437_tmr.c **** 
 2166              		.loc 1 1074 9 is_stmt 1 view .LVU590
1074:bsp/libraries/drivers/src/at32f435_437_tmr.c **** 
 2167              		.loc 1 1074 34 is_stmt 0 view .LVU591
 2168 0094 8369     		ldr	r3, [r0, #24]
 2169 0096 4FF0020C 		mov	ip, #2
 2170 009a 6CF30103 		bfi	r3, ip, #0, #2
 2171 009e 8361     		str	r3, [r0, #24]
1077:bsp/libraries/drivers/src/at32f435_437_tmr.c ****       }
 2172              		.loc 1 1077 9 is_stmt 1 view .LVU592
1077:bsp/libraries/drivers/src/at32f435_437_tmr.c ****       }
 2173              		.loc 1 1077 34 is_stmt 0 view .LVU593
 2174 00a0 8369     		ldr	r3, [r0, #24]
 2175 00a2 4FF0010C 		mov	ip, #1
 2176 00a6 6CF30923 		bfi	r3, ip, #8, #2
 2177 00aa 8361     		str	r3, [r0, #24]
 2178 00ac BCE7     		b	.L147
 2179              	.LVL155:
 2180              	.L142:
1091:bsp/libraries/drivers/src/at32f435_437_tmr.c **** 
1092:bsp/libraries/drivers/src/at32f435_437_tmr.c ****     case TMR_SELECT_CHANNEL_2:
1093:bsp/libraries/drivers/src/at32f435_437_tmr.c ****       if(input_struct->input_polarity_select == TMR_INPUT_RISING_EDGE)
 2181              		.loc 1 1093 7 is_stmt 1 view .LVU594
 2182              		.loc 1 1093 22 is_stmt 0 view .LVU595
 2183 00ae 4B78     		ldrb	r3, [r1, #1]	@ zero_extendqisi2
 2184              	.LVL156:
 2185              		.loc 1 1093 9 view .LVU596
 2186 00b0 53BB     		cbnz	r3, .L148
1094:bsp/libraries/drivers/src/at32f435_437_tmr.c ****       {
1095:bsp/libraries/drivers/src/at32f435_437_tmr.c ****         /* set channel polarity */
1096:bsp/libraries/drivers/src/at32f435_437_tmr.c ****         tmr_x->cctrl_bit.c2p          = TMR_INPUT_RISING_EDGE;
 2187              		.loc 1 1096 9 is_stmt 1 view .LVU597
 2188              		.loc 1 1096 39 is_stmt 0 view .LVU598
 2189 00b2 036A     		ldr	r3, [r0, #32]
 2190 00b4 6FF34513 		bfc	r3, #5, #1
 2191 00b8 0362     		str	r3, [r0, #32]
 2192              	.LVL157:
1097:bsp/libraries/drivers/src/at32f435_437_tmr.c ****         tmr_x->cctrl_bit.c1p          = TMR_INPUT_FALLING_EDGE;
 2193              		.loc 1 1097 9 is_stmt 1 view .LVU599
 2194              		.loc 1 1097 39 is_stmt 0 view .LVU600
 2195 00ba 036A     		ldr	r3, [r0, #32]
ARM GAS  C:\Users\user\AppData\Local\Temp\cccs5OkE.s 			page 60


 2196 00bc 43F00203 		orr	r3, r3, #2
 2197 00c0 0362     		str	r3, [r0, #32]
 2198              	.L149:
1098:bsp/libraries/drivers/src/at32f435_437_tmr.c ****       }
1099:bsp/libraries/drivers/src/at32f435_437_tmr.c ****       else if(input_struct->input_polarity_select == TMR_INPUT_FALLING_EDGE)
1100:bsp/libraries/drivers/src/at32f435_437_tmr.c ****       {
1101:bsp/libraries/drivers/src/at32f435_437_tmr.c ****         /* set channel polarity */
1102:bsp/libraries/drivers/src/at32f435_437_tmr.c ****         tmr_x->cctrl_bit.c2p          = TMR_INPUT_FALLING_EDGE;
1103:bsp/libraries/drivers/src/at32f435_437_tmr.c ****         tmr_x->cctrl_bit.c1p          = TMR_INPUT_RISING_EDGE;
1104:bsp/libraries/drivers/src/at32f435_437_tmr.c ****       }
1105:bsp/libraries/drivers/src/at32f435_437_tmr.c **** 
1106:bsp/libraries/drivers/src/at32f435_437_tmr.c ****       if(input_struct->input_mapped_select == TMR_CC_CHANNEL_MAPPED_DIRECT)
 2199              		.loc 1 1106 7 is_stmt 1 view .LVU601
 2200              		.loc 1 1106 22 is_stmt 0 view .LVU602
 2201 00c2 8B78     		ldrb	r3, [r1, #2]	@ zero_extendqisi2
 2202              		.loc 1 1106 9 view .LVU603
 2203 00c4 012B     		cmp	r3, #1
 2204 00c6 2AD0     		beq	.L154
1107:bsp/libraries/drivers/src/at32f435_437_tmr.c ****       {
1108:bsp/libraries/drivers/src/at32f435_437_tmr.c ****         /* set mapped direct */
1109:bsp/libraries/drivers/src/at32f435_437_tmr.c ****         tmr_x->cm1_input_bit.c2c = TMR_CC_CHANNEL_MAPPED_DIRECT;
1110:bsp/libraries/drivers/src/at32f435_437_tmr.c ****         tmr_x->cm1_input_bit.c1c = TMR_CC_CHANNEL_MAPPED_INDIRECT;
1111:bsp/libraries/drivers/src/at32f435_437_tmr.c ****       }
1112:bsp/libraries/drivers/src/at32f435_437_tmr.c ****       else if(input_struct->input_mapped_select == TMR_CC_CHANNEL_MAPPED_INDIRECT)
 2205              		.loc 1 1112 12 is_stmt 1 view .LVU604
 2206              		.loc 1 1112 14 is_stmt 0 view .LVU605
 2207 00c8 022B     		cmp	r3, #2
 2208 00ca 35D0     		beq	.L155
 2209              	.L151:
1113:bsp/libraries/drivers/src/at32f435_437_tmr.c ****       {
1114:bsp/libraries/drivers/src/at32f435_437_tmr.c ****         /* set mapped direct */
1115:bsp/libraries/drivers/src/at32f435_437_tmr.c ****         tmr_x->cm1_input_bit.c2c = TMR_CC_CHANNEL_MAPPED_INDIRECT;
1116:bsp/libraries/drivers/src/at32f435_437_tmr.c ****         tmr_x->cm1_input_bit.c1c = TMR_CC_CHANNEL_MAPPED_DIRECT;
1117:bsp/libraries/drivers/src/at32f435_437_tmr.c ****       }
1118:bsp/libraries/drivers/src/at32f435_437_tmr.c **** 
1119:bsp/libraries/drivers/src/at32f435_437_tmr.c ****       /* set input ch1 and ch2 filter value*/
1120:bsp/libraries/drivers/src/at32f435_437_tmr.c ****       tmr_x->cm1_input_bit.c1df = input_struct->input_filter_value;
 2210              		.loc 1 1120 7 is_stmt 1 view .LVU606
 2211              		.loc 1 1120 47 is_stmt 0 view .LVU607
 2212 00cc 91F803C0 		ldrb	ip, [r1, #3]	@ zero_extendqisi2
 2213              		.loc 1 1120 33 view .LVU608
 2214 00d0 8369     		ldr	r3, [r0, #24]
 2215 00d2 6CF30713 		bfi	r3, ip, #4, #4
 2216 00d6 8361     		str	r3, [r0, #24]
1121:bsp/libraries/drivers/src/at32f435_437_tmr.c ****       tmr_x->cm1_input_bit.c2df = input_struct->input_filter_value;
 2217              		.loc 1 1121 7 is_stmt 1 view .LVU609
 2218              		.loc 1 1121 47 is_stmt 0 view .LVU610
 2219 00d8 C978     		ldrb	r1, [r1, #3]	@ zero_extendqisi2
 2220              	.LVL158:
 2221              		.loc 1 1121 33 view .LVU611
 2222 00da 8369     		ldr	r3, [r0, #24]
 2223 00dc 61F30F33 		bfi	r3, r1, #12, #4
 2224 00e0 8361     		str	r3, [r0, #24]
1122:bsp/libraries/drivers/src/at32f435_437_tmr.c **** 
1123:bsp/libraries/drivers/src/at32f435_437_tmr.c ****       /*set input ch1 and ch2 divider value*/
1124:bsp/libraries/drivers/src/at32f435_437_tmr.c ****       tmr_x->cm1_input_bit.c1idiv = divider_factor;
 2225              		.loc 1 1124 7 is_stmt 1 view .LVU612
ARM GAS  C:\Users\user\AppData\Local\Temp\cccs5OkE.s 			page 61


 2226              		.loc 1 1124 35 is_stmt 0 view .LVU613
 2227 00e2 02F00302 		and	r2, r2, #3
 2228              	.LVL159:
 2229              		.loc 1 1124 35 view .LVU614
 2230 00e6 8369     		ldr	r3, [r0, #24]
 2231 00e8 62F38303 		bfi	r3, r2, #2, #2
 2232 00ec 8361     		str	r3, [r0, #24]
1125:bsp/libraries/drivers/src/at32f435_437_tmr.c ****       tmr_x->cm1_input_bit.c2idiv = divider_factor;
 2233              		.loc 1 1125 7 is_stmt 1 view .LVU615
 2234              		.loc 1 1125 35 is_stmt 0 view .LVU616
 2235 00ee 8369     		ldr	r3, [r0, #24]
 2236 00f0 62F38B23 		bfi	r3, r2, #10, #2
 2237 00f4 8361     		str	r3, [r0, #24]
1126:bsp/libraries/drivers/src/at32f435_437_tmr.c **** 
1127:bsp/libraries/drivers/src/at32f435_437_tmr.c ****       tmr_x->cctrl_bit.c1en = TRUE;
 2238              		.loc 1 1127 7 is_stmt 1 view .LVU617
 2239              		.loc 1 1127 29 is_stmt 0 view .LVU618
 2240 00f6 036A     		ldr	r3, [r0, #32]
 2241 00f8 43F00103 		orr	r3, r3, #1
 2242 00fc 0362     		str	r3, [r0, #32]
1128:bsp/libraries/drivers/src/at32f435_437_tmr.c ****       tmr_x->cctrl_bit.c2en = TRUE;
 2243              		.loc 1 1128 7 is_stmt 1 view .LVU619
 2244              		.loc 1 1128 29 is_stmt 0 view .LVU620
 2245 00fe 036A     		ldr	r3, [r0, #32]
 2246 0100 43F01003 		orr	r3, r3, #16
 2247 0104 0362     		str	r3, [r0, #32]
1129:bsp/libraries/drivers/src/at32f435_437_tmr.c ****       break;
 2248              		.loc 1 1129 7 is_stmt 1 view .LVU621
1130:bsp/libraries/drivers/src/at32f435_437_tmr.c **** 
1131:bsp/libraries/drivers/src/at32f435_437_tmr.c ****     default:
1132:bsp/libraries/drivers/src/at32f435_437_tmr.c ****       break;
1133:bsp/libraries/drivers/src/at32f435_437_tmr.c ****   }
1134:bsp/libraries/drivers/src/at32f435_437_tmr.c **** }
 2249              		.loc 1 1134 1 is_stmt 0 view .LVU622
 2250 0106 7047     		bx	lr
 2251              	.LVL160:
 2252              	.L148:
1099:bsp/libraries/drivers/src/at32f435_437_tmr.c ****       {
 2253              		.loc 1 1099 12 is_stmt 1 view .LVU623
1099:bsp/libraries/drivers/src/at32f435_437_tmr.c ****       {
 2254              		.loc 1 1099 14 is_stmt 0 view .LVU624
 2255 0108 012B     		cmp	r3, #1
 2256 010a DAD1     		bne	.L149
1102:bsp/libraries/drivers/src/at32f435_437_tmr.c ****         tmr_x->cctrl_bit.c1p          = TMR_INPUT_RISING_EDGE;
 2257              		.loc 1 1102 9 is_stmt 1 view .LVU625
1102:bsp/libraries/drivers/src/at32f435_437_tmr.c ****         tmr_x->cctrl_bit.c1p          = TMR_INPUT_RISING_EDGE;
 2258              		.loc 1 1102 39 is_stmt 0 view .LVU626
 2259 010c 036A     		ldr	r3, [r0, #32]
 2260 010e 43F02003 		orr	r3, r3, #32
 2261 0112 0362     		str	r3, [r0, #32]
 2262              	.LVL161:
1103:bsp/libraries/drivers/src/at32f435_437_tmr.c ****       }
 2263              		.loc 1 1103 9 is_stmt 1 view .LVU627
1103:bsp/libraries/drivers/src/at32f435_437_tmr.c ****       }
 2264              		.loc 1 1103 39 is_stmt 0 view .LVU628
 2265 0114 036A     		ldr	r3, [r0, #32]
 2266 0116 6FF34103 		bfc	r3, #1, #1
ARM GAS  C:\Users\user\AppData\Local\Temp\cccs5OkE.s 			page 62


 2267 011a 0362     		str	r3, [r0, #32]
 2268 011c D1E7     		b	.L149
 2269              	.L154:
1109:bsp/libraries/drivers/src/at32f435_437_tmr.c ****         tmr_x->cm1_input_bit.c1c = TMR_CC_CHANNEL_MAPPED_INDIRECT;
 2270              		.loc 1 1109 9 is_stmt 1 view .LVU629
1109:bsp/libraries/drivers/src/at32f435_437_tmr.c ****         tmr_x->cm1_input_bit.c1c = TMR_CC_CHANNEL_MAPPED_INDIRECT;
 2271              		.loc 1 1109 34 is_stmt 0 view .LVU630
 2272 011e 8369     		ldr	r3, [r0, #24]
 2273 0120 4FF0010C 		mov	ip, #1
 2274 0124 6CF30923 		bfi	r3, ip, #8, #2
 2275 0128 8361     		str	r3, [r0, #24]
1110:bsp/libraries/drivers/src/at32f435_437_tmr.c ****       }
 2276              		.loc 1 1110 9 is_stmt 1 view .LVU631
1110:bsp/libraries/drivers/src/at32f435_437_tmr.c ****       }
 2277              		.loc 1 1110 34 is_stmt 0 view .LVU632
 2278 012a 8369     		ldr	r3, [r0, #24]
 2279 012c 4FF0020C 		mov	ip, #2
 2280 0130 6CF30103 		bfi	r3, ip, #0, #2
 2281 0134 8361     		str	r3, [r0, #24]
 2282 0136 C9E7     		b	.L151
 2283              	.L155:
1115:bsp/libraries/drivers/src/at32f435_437_tmr.c ****         tmr_x->cm1_input_bit.c1c = TMR_CC_CHANNEL_MAPPED_DIRECT;
 2284              		.loc 1 1115 9 is_stmt 1 view .LVU633
1115:bsp/libraries/drivers/src/at32f435_437_tmr.c ****         tmr_x->cm1_input_bit.c1c = TMR_CC_CHANNEL_MAPPED_DIRECT;
 2285              		.loc 1 1115 34 is_stmt 0 view .LVU634
 2286 0138 8369     		ldr	r3, [r0, #24]
 2287 013a 4FF0020C 		mov	ip, #2
 2288 013e 6CF30923 		bfi	r3, ip, #8, #2
 2289 0142 8361     		str	r3, [r0, #24]
1116:bsp/libraries/drivers/src/at32f435_437_tmr.c ****       }
 2290              		.loc 1 1116 9 is_stmt 1 view .LVU635
1116:bsp/libraries/drivers/src/at32f435_437_tmr.c ****       }
 2291              		.loc 1 1116 34 is_stmt 0 view .LVU636
 2292 0144 8369     		ldr	r3, [r0, #24]
 2293 0146 4FF0010C 		mov	ip, #1
 2294 014a 6CF30103 		bfi	r3, ip, #0, #2
 2295 014e 8361     		str	r3, [r0, #24]
 2296 0150 BCE7     		b	.L151
 2297              		.cfi_endproc
 2298              	.LFE163:
 2300              		.section	.text.tmr_channel1_input_select,"ax",%progbits
 2301              		.align	1
 2302              		.global	tmr_channel1_input_select
 2303              		.syntax unified
 2304              		.thumb
 2305              		.thumb_func
 2307              	tmr_channel1_input_select:
 2308              	.LVL162:
 2309              	.LFB164:
1135:bsp/libraries/drivers/src/at32f435_437_tmr.c **** 
1136:bsp/libraries/drivers/src/at32f435_437_tmr.c **** /**
1137:bsp/libraries/drivers/src/at32f435_437_tmr.c ****   * @brief  select tmr channel1 input
1138:bsp/libraries/drivers/src/at32f435_437_tmr.c ****   * @param  tmr_x: select the tmr peripheral.
1139:bsp/libraries/drivers/src/at32f435_437_tmr.c ****   *         this parameter can be one of the following values:
1140:bsp/libraries/drivers/src/at32f435_437_tmr.c ****   *         TMR1, TMR2, TMR3, TMR4, TMR5, TMR8, TMR20
1141:bsp/libraries/drivers/src/at32f435_437_tmr.c ****   * @param  ch1_connect
1142:bsp/libraries/drivers/src/at32f435_437_tmr.c ****   *         this parameter can be one of the following values:
ARM GAS  C:\Users\user\AppData\Local\Temp\cccs5OkE.s 			page 63


1143:bsp/libraries/drivers/src/at32f435_437_tmr.c ****   *         - TMR_CHANEL1_CONNECTED_C1IRAW
1144:bsp/libraries/drivers/src/at32f435_437_tmr.c ****   *         - TMR_CHANEL1_2_3_CONNECTED_C1IRAW_XOR
1145:bsp/libraries/drivers/src/at32f435_437_tmr.c ****   * @retval none
1146:bsp/libraries/drivers/src/at32f435_437_tmr.c ****   */
1147:bsp/libraries/drivers/src/at32f435_437_tmr.c **** void tmr_channel1_input_select(tmr_type *tmr_x, tmr_channel1_input_connected_type ch1_connect)
1148:bsp/libraries/drivers/src/at32f435_437_tmr.c **** {
 2310              		.loc 1 1148 1 is_stmt 1 view -0
 2311              		.cfi_startproc
 2312              		@ args = 0, pretend = 0, frame = 0
 2313              		@ frame_needed = 0, uses_anonymous_args = 0
 2314              		@ link register save eliminated.
1149:bsp/libraries/drivers/src/at32f435_437_tmr.c ****   tmr_x->ctrl2_bit.c1insel = ch1_connect;
 2315              		.loc 1 1149 3 view .LVU638
 2316              		.loc 1 1149 28 is_stmt 0 view .LVU639
 2317 0000 4368     		ldr	r3, [r0, #4]
 2318 0002 61F3C713 		bfi	r3, r1, #7, #1
 2319 0006 4360     		str	r3, [r0, #4]
1150:bsp/libraries/drivers/src/at32f435_437_tmr.c **** }
 2320              		.loc 1 1150 1 view .LVU640
 2321 0008 7047     		bx	lr
 2322              		.cfi_endproc
 2323              	.LFE164:
 2325              		.section	.text.tmr_input_channel_divider_set,"ax",%progbits
 2326              		.align	1
 2327              		.global	tmr_input_channel_divider_set
 2328              		.syntax unified
 2329              		.thumb
 2330              		.thumb_func
 2332              	tmr_input_channel_divider_set:
 2333              	.LVL163:
 2334              	.LFB165:
1151:bsp/libraries/drivers/src/at32f435_437_tmr.c **** 
1152:bsp/libraries/drivers/src/at32f435_437_tmr.c **** /**
1153:bsp/libraries/drivers/src/at32f435_437_tmr.c ****   * @brief  set tmr input channel divider
1154:bsp/libraries/drivers/src/at32f435_437_tmr.c ****   * @param  tmr_x: select the tmr peripheral.
1155:bsp/libraries/drivers/src/at32f435_437_tmr.c ****   *         this parameter can be one of the following values:
1156:bsp/libraries/drivers/src/at32f435_437_tmr.c ****   *         TMR1, TMR2, TMR3, TMR4, TMR5, TMR8, TMR9, TMR10,
1157:bsp/libraries/drivers/src/at32f435_437_tmr.c ****   *         TMR11, TMR12, TMR13, TMR14, TMR20
1158:bsp/libraries/drivers/src/at32f435_437_tmr.c ****   * @param  tmr_channel
1159:bsp/libraries/drivers/src/at32f435_437_tmr.c ****   *         this parameter can be one of the following values:
1160:bsp/libraries/drivers/src/at32f435_437_tmr.c ****   *         - TMR_SELECT_CHANNEL_1
1161:bsp/libraries/drivers/src/at32f435_437_tmr.c ****   *         - TMR_SELECT_CHANNEL_2
1162:bsp/libraries/drivers/src/at32f435_437_tmr.c ****   *         - TMR_SELECT_CHANNEL_3
1163:bsp/libraries/drivers/src/at32f435_437_tmr.c ****   *         - TMR_SELECT_CHANNEL_4
1164:bsp/libraries/drivers/src/at32f435_437_tmr.c ****   * @param  divider_factor
1165:bsp/libraries/drivers/src/at32f435_437_tmr.c ****   *         this parameter can be one of the following values:
1166:bsp/libraries/drivers/src/at32f435_437_tmr.c ****   *         - TMR_CHANNEL_INPUT_DIV_1
1167:bsp/libraries/drivers/src/at32f435_437_tmr.c ****   *         - TMR_CHANNEL_INPUT_DIV_2
1168:bsp/libraries/drivers/src/at32f435_437_tmr.c ****   *         - TMR_CHANNEL_INPUT_DIV_4
1169:bsp/libraries/drivers/src/at32f435_437_tmr.c ****   *         - TMR_CHANNEL_INPUT_DIV_8
1170:bsp/libraries/drivers/src/at32f435_437_tmr.c ****   * @retval none
1171:bsp/libraries/drivers/src/at32f435_437_tmr.c ****   */
1172:bsp/libraries/drivers/src/at32f435_437_tmr.c **** void tmr_input_channel_divider_set(tmr_type *tmr_x, tmr_channel_select_type tmr_channel, \
1173:bsp/libraries/drivers/src/at32f435_437_tmr.c ****                                    tmr_channel_input_divider_type divider_factor)
1174:bsp/libraries/drivers/src/at32f435_437_tmr.c **** {
 2335              		.loc 1 1174 1 is_stmt 1 view -0
 2336              		.cfi_startproc
ARM GAS  C:\Users\user\AppData\Local\Temp\cccs5OkE.s 			page 64


 2337              		@ args = 0, pretend = 0, frame = 0
 2338              		@ frame_needed = 0, uses_anonymous_args = 0
 2339              		@ link register save eliminated.
1175:bsp/libraries/drivers/src/at32f435_437_tmr.c ****   uint16_t channel;
 2340              		.loc 1 1175 3 view .LVU642
1176:bsp/libraries/drivers/src/at32f435_437_tmr.c **** 
1177:bsp/libraries/drivers/src/at32f435_437_tmr.c ****   channel = tmr_channel;
 2341              		.loc 1 1177 3 view .LVU643
1178:bsp/libraries/drivers/src/at32f435_437_tmr.c **** 
1179:bsp/libraries/drivers/src/at32f435_437_tmr.c ****   switch(channel)
 2342              		.loc 1 1179 3 view .LVU644
 2343 0000 0629     		cmp	r1, #6
 2344 0002 18D8     		bhi	.L157
 2345 0004 DFE801F0 		tbb	[pc, r1]
 2346              	.L160:
 2347 0008 04       		.byte	(.L163-.L160)/2
 2348 0009 17       		.byte	(.L157-.L160)/2
 2349 000a 09       		.byte	(.L162-.L160)/2
 2350 000b 17       		.byte	(.L157-.L160)/2
 2351 000c 0E       		.byte	(.L161-.L160)/2
 2352 000d 17       		.byte	(.L157-.L160)/2
 2353 000e 13       		.byte	(.L159-.L160)/2
 2354 000f 00       		.p2align 1
 2355              	.L163:
1180:bsp/libraries/drivers/src/at32f435_437_tmr.c ****   {
1181:bsp/libraries/drivers/src/at32f435_437_tmr.c ****     case TMR_SELECT_CHANNEL_1:
1182:bsp/libraries/drivers/src/at32f435_437_tmr.c ****       tmr_x->cm1_input_bit.c1idiv = divider_factor;
 2356              		.loc 1 1182 7 view .LVU645
 2357              		.loc 1 1182 35 is_stmt 0 view .LVU646
 2358 0010 8369     		ldr	r3, [r0, #24]
 2359 0012 62F38303 		bfi	r3, r2, #2, #2
 2360 0016 8361     		str	r3, [r0, #24]
1183:bsp/libraries/drivers/src/at32f435_437_tmr.c ****       break;
 2361              		.loc 1 1183 7 is_stmt 1 view .LVU647
 2362 0018 7047     		bx	lr
 2363              	.L162:
1184:bsp/libraries/drivers/src/at32f435_437_tmr.c **** 
1185:bsp/libraries/drivers/src/at32f435_437_tmr.c ****     case TMR_SELECT_CHANNEL_2:
1186:bsp/libraries/drivers/src/at32f435_437_tmr.c ****       tmr_x->cm1_input_bit.c2idiv = divider_factor;
 2364              		.loc 1 1186 7 view .LVU648
 2365              		.loc 1 1186 35 is_stmt 0 view .LVU649
 2366 001a 8369     		ldr	r3, [r0, #24]
 2367 001c 62F38B23 		bfi	r3, r2, #10, #2
 2368 0020 8361     		str	r3, [r0, #24]
1187:bsp/libraries/drivers/src/at32f435_437_tmr.c ****       break;
 2369              		.loc 1 1187 7 is_stmt 1 view .LVU650
 2370 0022 7047     		bx	lr
 2371              	.L161:
1188:bsp/libraries/drivers/src/at32f435_437_tmr.c **** 
1189:bsp/libraries/drivers/src/at32f435_437_tmr.c ****     case TMR_SELECT_CHANNEL_3:
1190:bsp/libraries/drivers/src/at32f435_437_tmr.c ****       tmr_x->cm2_input_bit.c3idiv = divider_factor;
 2372              		.loc 1 1190 7 view .LVU651
 2373              		.loc 1 1190 35 is_stmt 0 view .LVU652
 2374 0024 C369     		ldr	r3, [r0, #28]
 2375 0026 62F38303 		bfi	r3, r2, #2, #2
 2376 002a C361     		str	r3, [r0, #28]
1191:bsp/libraries/drivers/src/at32f435_437_tmr.c ****       break;
ARM GAS  C:\Users\user\AppData\Local\Temp\cccs5OkE.s 			page 65


 2377              		.loc 1 1191 7 is_stmt 1 view .LVU653
 2378 002c 7047     		bx	lr
 2379              	.L159:
1192:bsp/libraries/drivers/src/at32f435_437_tmr.c **** 
1193:bsp/libraries/drivers/src/at32f435_437_tmr.c ****     case TMR_SELECT_CHANNEL_4:
1194:bsp/libraries/drivers/src/at32f435_437_tmr.c ****       tmr_x->cm2_input_bit.c4idiv = divider_factor;
 2380              		.loc 1 1194 7 view .LVU654
 2381              		.loc 1 1194 35 is_stmt 0 view .LVU655
 2382 002e C369     		ldr	r3, [r0, #28]
 2383 0030 62F38B23 		bfi	r3, r2, #10, #2
 2384 0034 C361     		str	r3, [r0, #28]
1195:bsp/libraries/drivers/src/at32f435_437_tmr.c ****       break;
 2385              		.loc 1 1195 7 is_stmt 1 view .LVU656
 2386              	.L157:
1196:bsp/libraries/drivers/src/at32f435_437_tmr.c **** 
1197:bsp/libraries/drivers/src/at32f435_437_tmr.c ****     default:
1198:bsp/libraries/drivers/src/at32f435_437_tmr.c ****       break;
1199:bsp/libraries/drivers/src/at32f435_437_tmr.c ****   }
1200:bsp/libraries/drivers/src/at32f435_437_tmr.c **** }
 2387              		.loc 1 1200 1 is_stmt 0 view .LVU657
 2388 0036 7047     		bx	lr
 2389              		.cfi_endproc
 2390              	.LFE165:
 2392              		.section	.text.tmr_primary_mode_select,"ax",%progbits
 2393              		.align	1
 2394              		.global	tmr_primary_mode_select
 2395              		.syntax unified
 2396              		.thumb
 2397              		.thumb_func
 2399              	tmr_primary_mode_select:
 2400              	.LVL164:
 2401              	.LFB166:
1201:bsp/libraries/drivers/src/at32f435_437_tmr.c **** 
1202:bsp/libraries/drivers/src/at32f435_437_tmr.c **** /**
1203:bsp/libraries/drivers/src/at32f435_437_tmr.c ****   * @brief  select tmr primary mode
1204:bsp/libraries/drivers/src/at32f435_437_tmr.c ****   * @param  tmr_x: select the tmr peripheral.
1205:bsp/libraries/drivers/src/at32f435_437_tmr.c ****   *         this parameter can be one of the following values:
1206:bsp/libraries/drivers/src/at32f435_437_tmr.c ****   *         TMR1, TMR2, TMR3, TMR4, TMR5, TMR6, TMR7, TMR8, TMR20
1207:bsp/libraries/drivers/src/at32f435_437_tmr.c ****   * @param  primary_mode
1208:bsp/libraries/drivers/src/at32f435_437_tmr.c ****   *         this parameter can be one of the following values:
1209:bsp/libraries/drivers/src/at32f435_437_tmr.c ****   *         - TMR_PRIMARY_SEL_RESET
1210:bsp/libraries/drivers/src/at32f435_437_tmr.c ****   *         - TMR_PRIMARY_SEL_ENABLE
1211:bsp/libraries/drivers/src/at32f435_437_tmr.c ****   *         - TMR_PRIMARY_SEL_OVERFLOW
1212:bsp/libraries/drivers/src/at32f435_437_tmr.c ****   *         - TMR_PRIMARY_SEL_COMPARE
1213:bsp/libraries/drivers/src/at32f435_437_tmr.c ****   *         - TMR_PRIMARY_SEL_C1ORAW
1214:bsp/libraries/drivers/src/at32f435_437_tmr.c ****   *         - TMR_PRIMARY_SEL_C2ORAW
1215:bsp/libraries/drivers/src/at32f435_437_tmr.c ****   *         - TMR_PRIMARY_SEL_C3ORAW
1216:bsp/libraries/drivers/src/at32f435_437_tmr.c ****   *         - TMR_PRIMARY_SEL_C4ORAW
1217:bsp/libraries/drivers/src/at32f435_437_tmr.c ****   * @retval none
1218:bsp/libraries/drivers/src/at32f435_437_tmr.c ****   */
1219:bsp/libraries/drivers/src/at32f435_437_tmr.c **** void tmr_primary_mode_select(tmr_type *tmr_x, tmr_primary_select_type primary_mode)
1220:bsp/libraries/drivers/src/at32f435_437_tmr.c **** {
 2402              		.loc 1 1220 1 is_stmt 1 view -0
 2403              		.cfi_startproc
 2404              		@ args = 0, pretend = 0, frame = 0
 2405              		@ frame_needed = 0, uses_anonymous_args = 0
 2406              		@ link register save eliminated.
ARM GAS  C:\Users\user\AppData\Local\Temp\cccs5OkE.s 			page 66


1221:bsp/libraries/drivers/src/at32f435_437_tmr.c ****   tmr_x->ctrl2_bit.ptos = primary_mode;
 2407              		.loc 1 1221 3 view .LVU659
 2408              		.loc 1 1221 25 is_stmt 0 view .LVU660
 2409 0000 4368     		ldr	r3, [r0, #4]
 2410 0002 61F30613 		bfi	r3, r1, #4, #3
 2411 0006 4360     		str	r3, [r0, #4]
1222:bsp/libraries/drivers/src/at32f435_437_tmr.c **** }
 2412              		.loc 1 1222 1 view .LVU661
 2413 0008 7047     		bx	lr
 2414              		.cfi_endproc
 2415              	.LFE166:
 2417              		.section	.text.tmr_sub_mode_select,"ax",%progbits
 2418              		.align	1
 2419              		.global	tmr_sub_mode_select
 2420              		.syntax unified
 2421              		.thumb
 2422              		.thumb_func
 2424              	tmr_sub_mode_select:
 2425              	.LVL165:
 2426              	.LFB167:
1223:bsp/libraries/drivers/src/at32f435_437_tmr.c **** 
1224:bsp/libraries/drivers/src/at32f435_437_tmr.c **** /**
1225:bsp/libraries/drivers/src/at32f435_437_tmr.c ****   * @brief  select tmr subordinate mode
1226:bsp/libraries/drivers/src/at32f435_437_tmr.c ****   * @param  tmr_x: select the tmr peripheral.
1227:bsp/libraries/drivers/src/at32f435_437_tmr.c ****   *         this parameter can be one of the following values:
1228:bsp/libraries/drivers/src/at32f435_437_tmr.c ****   *         TMR1, TMR2, TMR3, TMR4, TMR5, TMR8, TMR9, TMR12, TMR20
1229:bsp/libraries/drivers/src/at32f435_437_tmr.c ****   * @param  sub_mode
1230:bsp/libraries/drivers/src/at32f435_437_tmr.c ****   *         this parameter can be one of the following values:
1231:bsp/libraries/drivers/src/at32f435_437_tmr.c ****   *         - TMR_SUB_MODE_DIABLE
1232:bsp/libraries/drivers/src/at32f435_437_tmr.c ****   *         - TMR_SUB_ENCODER_MODE_A
1233:bsp/libraries/drivers/src/at32f435_437_tmr.c ****   *         - TMR_SUB_ENCODER_MODE_B
1234:bsp/libraries/drivers/src/at32f435_437_tmr.c ****   *         - TMR_SUB_ENCODER_MODE_C
1235:bsp/libraries/drivers/src/at32f435_437_tmr.c ****   *         - TMR_SUB_RESET_MODE
1236:bsp/libraries/drivers/src/at32f435_437_tmr.c ****   *         - TMR_SUB_HANG_MODE
1237:bsp/libraries/drivers/src/at32f435_437_tmr.c ****   *         - TMR_SUB_TRIGGER_MODE
1238:bsp/libraries/drivers/src/at32f435_437_tmr.c ****   *         - TMR_SUB_EXTERNAL_CLOCK_MODE_A
1239:bsp/libraries/drivers/src/at32f435_437_tmr.c **** 
1240:bsp/libraries/drivers/src/at32f435_437_tmr.c ****   * @retval none
1241:bsp/libraries/drivers/src/at32f435_437_tmr.c ****   */
1242:bsp/libraries/drivers/src/at32f435_437_tmr.c **** void tmr_sub_mode_select(tmr_type *tmr_x, tmr_sub_mode_select_type sub_mode)
1243:bsp/libraries/drivers/src/at32f435_437_tmr.c **** {
 2427              		.loc 1 1243 1 is_stmt 1 view -0
 2428              		.cfi_startproc
 2429              		@ args = 0, pretend = 0, frame = 0
 2430              		@ frame_needed = 0, uses_anonymous_args = 0
 2431              		@ link register save eliminated.
1244:bsp/libraries/drivers/src/at32f435_437_tmr.c ****   tmr_x->stctrl_bit.smsel = sub_mode;
 2432              		.loc 1 1244 3 view .LVU663
 2433              		.loc 1 1244 27 is_stmt 0 view .LVU664
 2434 0000 8368     		ldr	r3, [r0, #8]
 2435 0002 61F30203 		bfi	r3, r1, #0, #3
 2436 0006 8360     		str	r3, [r0, #8]
1245:bsp/libraries/drivers/src/at32f435_437_tmr.c **** }
 2437              		.loc 1 1245 1 view .LVU665
 2438 0008 7047     		bx	lr
 2439              		.cfi_endproc
 2440              	.LFE167:
ARM GAS  C:\Users\user\AppData\Local\Temp\cccs5OkE.s 			page 67


 2442              		.section	.text.tmr_channel_dma_select,"ax",%progbits
 2443              		.align	1
 2444              		.global	tmr_channel_dma_select
 2445              		.syntax unified
 2446              		.thumb
 2447              		.thumb_func
 2449              	tmr_channel_dma_select:
 2450              	.LVL166:
 2451              	.LFB168:
1246:bsp/libraries/drivers/src/at32f435_437_tmr.c **** 
1247:bsp/libraries/drivers/src/at32f435_437_tmr.c **** /**
1248:bsp/libraries/drivers/src/at32f435_437_tmr.c ****   * @brief  select tmr channel dma
1249:bsp/libraries/drivers/src/at32f435_437_tmr.c ****   * @param  tmr_x: select the tmr peripheral.
1250:bsp/libraries/drivers/src/at32f435_437_tmr.c ****   *         this parameter can be one of the following values:
1251:bsp/libraries/drivers/src/at32f435_437_tmr.c ****   *         TMR1, TMR2, TMR3, TMR4, TMR5, TMR8, TMR9, TMR12, TMR20
1252:bsp/libraries/drivers/src/at32f435_437_tmr.c ****   * @param  cc_dma_select
1253:bsp/libraries/drivers/src/at32f435_437_tmr.c ****   *         this parameter can be one of the following values:
1254:bsp/libraries/drivers/src/at32f435_437_tmr.c ****   *         - TMR_DMA_REQUEST_BY_CHANNEL
1255:bsp/libraries/drivers/src/at32f435_437_tmr.c ****   *         - TMR_DMA_REQUEST_BY_OVERFLOW
1256:bsp/libraries/drivers/src/at32f435_437_tmr.c ****   * @retval none
1257:bsp/libraries/drivers/src/at32f435_437_tmr.c ****   */
1258:bsp/libraries/drivers/src/at32f435_437_tmr.c **** void tmr_channel_dma_select(tmr_type *tmr_x, tmr_dma_request_source_type cc_dma_select)
1259:bsp/libraries/drivers/src/at32f435_437_tmr.c **** {
 2452              		.loc 1 1259 1 is_stmt 1 view -0
 2453              		.cfi_startproc
 2454              		@ args = 0, pretend = 0, frame = 0
 2455              		@ frame_needed = 0, uses_anonymous_args = 0
 2456              		@ link register save eliminated.
1260:bsp/libraries/drivers/src/at32f435_437_tmr.c ****   tmr_x->ctrl2_bit.drs = cc_dma_select;
 2457              		.loc 1 1260 3 view .LVU667
 2458              		.loc 1 1260 24 is_stmt 0 view .LVU668
 2459 0000 4368     		ldr	r3, [r0, #4]
 2460 0002 61F3C303 		bfi	r3, r1, #3, #1
 2461 0006 4360     		str	r3, [r0, #4]
1261:bsp/libraries/drivers/src/at32f435_437_tmr.c **** }
 2462              		.loc 1 1261 1 view .LVU669
 2463 0008 7047     		bx	lr
 2464              		.cfi_endproc
 2465              	.LFE168:
 2467              		.section	.text.tmr_hall_select,"ax",%progbits
 2468              		.align	1
 2469              		.global	tmr_hall_select
 2470              		.syntax unified
 2471              		.thumb
 2472              		.thumb_func
 2474              	tmr_hall_select:
 2475              	.LVL167:
 2476              	.LFB169:
1262:bsp/libraries/drivers/src/at32f435_437_tmr.c **** 
1263:bsp/libraries/drivers/src/at32f435_437_tmr.c **** /**
1264:bsp/libraries/drivers/src/at32f435_437_tmr.c ****   * @brief  select tmr hall
1265:bsp/libraries/drivers/src/at32f435_437_tmr.c ****   * @param  tmr_x: select the tmr peripheral.
1266:bsp/libraries/drivers/src/at32f435_437_tmr.c ****   *         this parameter can be one of the following values:
1267:bsp/libraries/drivers/src/at32f435_437_tmr.c ****   *         TMR1, TMR8, TMR20
1268:bsp/libraries/drivers/src/at32f435_437_tmr.c ****   * @param  new_state (TRUE or FALSE)
1269:bsp/libraries/drivers/src/at32f435_437_tmr.c ****   * @retval none
1270:bsp/libraries/drivers/src/at32f435_437_tmr.c ****   */
ARM GAS  C:\Users\user\AppData\Local\Temp\cccs5OkE.s 			page 68


1271:bsp/libraries/drivers/src/at32f435_437_tmr.c **** void tmr_hall_select(tmr_type *tmr_x,  confirm_state new_state)
1272:bsp/libraries/drivers/src/at32f435_437_tmr.c **** {
 2477              		.loc 1 1272 1 is_stmt 1 view -0
 2478              		.cfi_startproc
 2479              		@ args = 0, pretend = 0, frame = 0
 2480              		@ frame_needed = 0, uses_anonymous_args = 0
 2481              		@ link register save eliminated.
1273:bsp/libraries/drivers/src/at32f435_437_tmr.c ****   tmr_x->ctrl2_bit.ccfs = new_state;
 2482              		.loc 1 1273 3 view .LVU671
 2483              		.loc 1 1273 25 is_stmt 0 view .LVU672
 2484 0000 4368     		ldr	r3, [r0, #4]
 2485 0002 61F38203 		bfi	r3, r1, #2, #1
 2486 0006 4360     		str	r3, [r0, #4]
1274:bsp/libraries/drivers/src/at32f435_437_tmr.c **** }
 2487              		.loc 1 1274 1 view .LVU673
 2488 0008 7047     		bx	lr
 2489              		.cfi_endproc
 2490              	.LFE169:
 2492              		.section	.text.tmr_channel_buffer_enable,"ax",%progbits
 2493              		.align	1
 2494              		.global	tmr_channel_buffer_enable
 2495              		.syntax unified
 2496              		.thumb
 2497              		.thumb_func
 2499              	tmr_channel_buffer_enable:
 2500              	.LVL168:
 2501              	.LFB170:
1275:bsp/libraries/drivers/src/at32f435_437_tmr.c **** 
1276:bsp/libraries/drivers/src/at32f435_437_tmr.c **** /**
1277:bsp/libraries/drivers/src/at32f435_437_tmr.c ****   * @brief  select tmr channel buffer
1278:bsp/libraries/drivers/src/at32f435_437_tmr.c ****   * @param  tmr_x: select the tmr peripheral.
1279:bsp/libraries/drivers/src/at32f435_437_tmr.c ****   *         this parameter can be one of the following values:
1280:bsp/libraries/drivers/src/at32f435_437_tmr.c ****   *         TMR1, TMR8, TMR20
1281:bsp/libraries/drivers/src/at32f435_437_tmr.c ****   * @param  new_state (TRUE or FALSE)
1282:bsp/libraries/drivers/src/at32f435_437_tmr.c ****   * @retval none
1283:bsp/libraries/drivers/src/at32f435_437_tmr.c ****   */
1284:bsp/libraries/drivers/src/at32f435_437_tmr.c **** void tmr_channel_buffer_enable(tmr_type *tmr_x, confirm_state new_state)
1285:bsp/libraries/drivers/src/at32f435_437_tmr.c **** {
 2502              		.loc 1 1285 1 is_stmt 1 view -0
 2503              		.cfi_startproc
 2504              		@ args = 0, pretend = 0, frame = 0
 2505              		@ frame_needed = 0, uses_anonymous_args = 0
 2506              		@ link register save eliminated.
1286:bsp/libraries/drivers/src/at32f435_437_tmr.c ****   tmr_x->ctrl2_bit.cbctrl = new_state;
 2507              		.loc 1 1286 3 view .LVU675
 2508              		.loc 1 1286 27 is_stmt 0 view .LVU676
 2509 0000 4368     		ldr	r3, [r0, #4]
 2510 0002 61F30003 		bfi	r3, r1, #0, #1
 2511 0006 4360     		str	r3, [r0, #4]
1287:bsp/libraries/drivers/src/at32f435_437_tmr.c **** }
 2512              		.loc 1 1287 1 view .LVU677
 2513 0008 7047     		bx	lr
 2514              		.cfi_endproc
 2515              	.LFE170:
 2517              		.section	.text.tmr_trgout2_enable,"ax",%progbits
 2518              		.align	1
 2519              		.global	tmr_trgout2_enable
ARM GAS  C:\Users\user\AppData\Local\Temp\cccs5OkE.s 			page 69


 2520              		.syntax unified
 2521              		.thumb
 2522              		.thumb_func
 2524              	tmr_trgout2_enable:
 2525              	.LVL169:
 2526              	.LFB171:
1288:bsp/libraries/drivers/src/at32f435_437_tmr.c **** 
1289:bsp/libraries/drivers/src/at32f435_437_tmr.c **** /**
1290:bsp/libraries/drivers/src/at32f435_437_tmr.c ****   * @brief  select tmr trgout2
1291:bsp/libraries/drivers/src/at32f435_437_tmr.c ****   * @param  tmr_x: select the tmr peripheral.
1292:bsp/libraries/drivers/src/at32f435_437_tmr.c ****   *         this parameter can be one of the following values:
1293:bsp/libraries/drivers/src/at32f435_437_tmr.c ****   *         TMR1, TMR8, TMR20
1294:bsp/libraries/drivers/src/at32f435_437_tmr.c ****   * @param  new_state (TRUE or FALSE)
1295:bsp/libraries/drivers/src/at32f435_437_tmr.c ****   * @retval none
1296:bsp/libraries/drivers/src/at32f435_437_tmr.c ****   */
1297:bsp/libraries/drivers/src/at32f435_437_tmr.c **** void tmr_trgout2_enable(tmr_type *tmr_x, confirm_state new_state)
1298:bsp/libraries/drivers/src/at32f435_437_tmr.c **** {
 2527              		.loc 1 1298 1 is_stmt 1 view -0
 2528              		.cfi_startproc
 2529              		@ args = 0, pretend = 0, frame = 0
 2530              		@ frame_needed = 0, uses_anonymous_args = 0
 2531              		@ link register save eliminated.
1299:bsp/libraries/drivers/src/at32f435_437_tmr.c ****   tmr_x->ctrl2_bit.trgout2en = new_state;
 2532              		.loc 1 1299 3 view .LVU679
 2533              		.loc 1 1299 30 is_stmt 0 view .LVU680
 2534 0000 4368     		ldr	r3, [r0, #4]
 2535 0002 61F3DF73 		bfi	r3, r1, #31, #1
 2536 0006 4360     		str	r3, [r0, #4]
1300:bsp/libraries/drivers/src/at32f435_437_tmr.c **** }
 2537              		.loc 1 1300 1 view .LVU681
 2538 0008 7047     		bx	lr
 2539              		.cfi_endproc
 2540              	.LFE171:
 2542              		.section	.text.tmr_trigger_input_select,"ax",%progbits
 2543              		.align	1
 2544              		.global	tmr_trigger_input_select
 2545              		.syntax unified
 2546              		.thumb
 2547              		.thumb_func
 2549              	tmr_trigger_input_select:
 2550              	.LVL170:
 2551              	.LFB172:
1301:bsp/libraries/drivers/src/at32f435_437_tmr.c **** 
1302:bsp/libraries/drivers/src/at32f435_437_tmr.c **** /**
1303:bsp/libraries/drivers/src/at32f435_437_tmr.c ****   * @brief  select tmr sub-trigger
1304:bsp/libraries/drivers/src/at32f435_437_tmr.c ****   * @param  tmr_x: select the tmr peripheral.
1305:bsp/libraries/drivers/src/at32f435_437_tmr.c ****   *         this parameter can be one of the following values:
1306:bsp/libraries/drivers/src/at32f435_437_tmr.c ****   *         TMR1, TMR2, TMR3, TMR4, TMR5, TMR8, TMR9, TMR12, TMR20
1307:bsp/libraries/drivers/src/at32f435_437_tmr.c ****   * @param  trigger_select
1308:bsp/libraries/drivers/src/at32f435_437_tmr.c ****   *         this parameter can be one of the following values:
1309:bsp/libraries/drivers/src/at32f435_437_tmr.c ****   *         - TMR_SUB_INPUT_SEL_IS0
1310:bsp/libraries/drivers/src/at32f435_437_tmr.c ****   *         - TMR_SUB_INPUT_SEL_IS1
1311:bsp/libraries/drivers/src/at32f435_437_tmr.c ****   *         - TMR_SUB_INPUT_SEL_IS2
1312:bsp/libraries/drivers/src/at32f435_437_tmr.c ****   *         - TMR_SUB_INPUT_SEL_IS3
1313:bsp/libraries/drivers/src/at32f435_437_tmr.c ****   *         - TMR_SUB_INPUT_SEL_C1INC
1314:bsp/libraries/drivers/src/at32f435_437_tmr.c ****   *         - TMR_SUB_INPUT_SEL_C1DF1
1315:bsp/libraries/drivers/src/at32f435_437_tmr.c ****   *         - TMR_SUB_INPUT_SEL_C2DF2
ARM GAS  C:\Users\user\AppData\Local\Temp\cccs5OkE.s 			page 70


1316:bsp/libraries/drivers/src/at32f435_437_tmr.c ****   *         - TMR_SUB_INPUT_SEL_EXTIN
1317:bsp/libraries/drivers/src/at32f435_437_tmr.c ****   * @retval none
1318:bsp/libraries/drivers/src/at32f435_437_tmr.c ****   */
1319:bsp/libraries/drivers/src/at32f435_437_tmr.c **** void tmr_trigger_input_select(tmr_type *tmr_x, sub_tmr_input_sel_type trigger_select)
1320:bsp/libraries/drivers/src/at32f435_437_tmr.c **** {
 2552              		.loc 1 1320 1 is_stmt 1 view -0
 2553              		.cfi_startproc
 2554              		@ args = 0, pretend = 0, frame = 0
 2555              		@ frame_needed = 0, uses_anonymous_args = 0
 2556              		@ link register save eliminated.
1321:bsp/libraries/drivers/src/at32f435_437_tmr.c ****   tmr_x->stctrl_bit.stis = trigger_select;
 2557              		.loc 1 1321 3 view .LVU683
 2558              		.loc 1 1321 26 is_stmt 0 view .LVU684
 2559 0000 8368     		ldr	r3, [r0, #8]
 2560 0002 61F30613 		bfi	r3, r1, #4, #3
 2561 0006 8360     		str	r3, [r0, #8]
1322:bsp/libraries/drivers/src/at32f435_437_tmr.c **** }
 2562              		.loc 1 1322 1 view .LVU685
 2563 0008 7047     		bx	lr
 2564              		.cfi_endproc
 2565              	.LFE172:
 2567              		.section	.text.tmr_sub_sync_mode_set,"ax",%progbits
 2568              		.align	1
 2569              		.global	tmr_sub_sync_mode_set
 2570              		.syntax unified
 2571              		.thumb
 2572              		.thumb_func
 2574              	tmr_sub_sync_mode_set:
 2575              	.LVL171:
 2576              	.LFB173:
1323:bsp/libraries/drivers/src/at32f435_437_tmr.c **** 
1324:bsp/libraries/drivers/src/at32f435_437_tmr.c **** /**
1325:bsp/libraries/drivers/src/at32f435_437_tmr.c ****   * @brief  set tmr subordinate synchronization mode
1326:bsp/libraries/drivers/src/at32f435_437_tmr.c ****   * @param  tmr_x: select the tmr peripheral.
1327:bsp/libraries/drivers/src/at32f435_437_tmr.c ****   *         this parameter can be one of the following values:
1328:bsp/libraries/drivers/src/at32f435_437_tmr.c ****   *         TMR1, TMR2, TMR3, TMR4, TMR5, TMR8, TMR9, TMR12, TMR20
1329:bsp/libraries/drivers/src/at32f435_437_tmr.c ****   * @param  new_state (TRUE or FALSE)
1330:bsp/libraries/drivers/src/at32f435_437_tmr.c ****   * @retval none
1331:bsp/libraries/drivers/src/at32f435_437_tmr.c ****   */
1332:bsp/libraries/drivers/src/at32f435_437_tmr.c **** void tmr_sub_sync_mode_set(tmr_type *tmr_x, confirm_state new_state)
1333:bsp/libraries/drivers/src/at32f435_437_tmr.c **** {
 2577              		.loc 1 1333 1 is_stmt 1 view -0
 2578              		.cfi_startproc
 2579              		@ args = 0, pretend = 0, frame = 0
 2580              		@ frame_needed = 0, uses_anonymous_args = 0
 2581              		@ link register save eliminated.
1334:bsp/libraries/drivers/src/at32f435_437_tmr.c ****   tmr_x->stctrl_bit.sts = new_state;
 2582              		.loc 1 1334 3 view .LVU687
 2583              		.loc 1 1334 25 is_stmt 0 view .LVU688
 2584 0000 8368     		ldr	r3, [r0, #8]
 2585 0002 61F3C713 		bfi	r3, r1, #7, #1
 2586 0006 8360     		str	r3, [r0, #8]
1335:bsp/libraries/drivers/src/at32f435_437_tmr.c **** }
 2587              		.loc 1 1335 1 view .LVU689
 2588 0008 7047     		bx	lr
 2589              		.cfi_endproc
 2590              	.LFE173:
ARM GAS  C:\Users\user\AppData\Local\Temp\cccs5OkE.s 			page 71


 2592              		.section	.text.tmr_dma_request_enable,"ax",%progbits
 2593              		.align	1
 2594              		.global	tmr_dma_request_enable
 2595              		.syntax unified
 2596              		.thumb
 2597              		.thumb_func
 2599              	tmr_dma_request_enable:
 2600              	.LVL172:
 2601              	.LFB174:
1336:bsp/libraries/drivers/src/at32f435_437_tmr.c **** 
1337:bsp/libraries/drivers/src/at32f435_437_tmr.c **** /**
1338:bsp/libraries/drivers/src/at32f435_437_tmr.c ****   * @brief  enable or disable tmr dma request
1339:bsp/libraries/drivers/src/at32f435_437_tmr.c ****   * @param  tmr_x: select the tmr peripheral.
1340:bsp/libraries/drivers/src/at32f435_437_tmr.c ****   *         this parameter can be one of the following values:
1341:bsp/libraries/drivers/src/at32f435_437_tmr.c ****   *         TMR1, TMR2, TMR3, TMR4, TMR5, TMR6, TMR7, TMR8,
1342:bsp/libraries/drivers/src/at32f435_437_tmr.c ****   *         TMR9, TMR10, TMR11, TMR12, TMR13, TMR14, TMR20
1343:bsp/libraries/drivers/src/at32f435_437_tmr.c ****   * @param  dma_request
1344:bsp/libraries/drivers/src/at32f435_437_tmr.c ****   *         this parameter can be one of the following values:
1345:bsp/libraries/drivers/src/at32f435_437_tmr.c ****   *         - TMR_OVERFLOW_DMA_REQUEST
1346:bsp/libraries/drivers/src/at32f435_437_tmr.c ****   *         - TMR_C1_DMA_REQUEST
1347:bsp/libraries/drivers/src/at32f435_437_tmr.c ****   *         - TMR_C2_DMA_REQUEST
1348:bsp/libraries/drivers/src/at32f435_437_tmr.c ****   *         - TMR_C3_DMA_REQUEST
1349:bsp/libraries/drivers/src/at32f435_437_tmr.c ****   *         - TMR_C4_DMA_REQUEST
1350:bsp/libraries/drivers/src/at32f435_437_tmr.c ****   *         - TMR_HALL_DMA_REQUEST
1351:bsp/libraries/drivers/src/at32f435_437_tmr.c ****   *         - TMR_TRIGGER_DMA_REQUEST
1352:bsp/libraries/drivers/src/at32f435_437_tmr.c ****   * @param  new_state (TRUE or FALSE)
1353:bsp/libraries/drivers/src/at32f435_437_tmr.c ****   * @retval none
1354:bsp/libraries/drivers/src/at32f435_437_tmr.c ****   */
1355:bsp/libraries/drivers/src/at32f435_437_tmr.c **** void tmr_dma_request_enable(tmr_type *tmr_x, tmr_dma_request_type dma_request, confirm_state new_st
1356:bsp/libraries/drivers/src/at32f435_437_tmr.c **** {
 2602              		.loc 1 1356 1 is_stmt 1 view -0
 2603              		.cfi_startproc
 2604              		@ args = 0, pretend = 0, frame = 0
 2605              		@ frame_needed = 0, uses_anonymous_args = 0
 2606              		@ link register save eliminated.
1357:bsp/libraries/drivers/src/at32f435_437_tmr.c ****   if(new_state == TRUE)
 2607              		.loc 1 1357 3 view .LVU691
 2608              		.loc 1 1357 5 is_stmt 0 view .LVU692
 2609 0000 012A     		cmp	r2, #1
 2610 0002 05D0     		beq	.L175
1358:bsp/libraries/drivers/src/at32f435_437_tmr.c ****   {
1359:bsp/libraries/drivers/src/at32f435_437_tmr.c ****     tmr_x->iden |= dma_request;
1360:bsp/libraries/drivers/src/at32f435_437_tmr.c ****   }
1361:bsp/libraries/drivers/src/at32f435_437_tmr.c ****   else if(new_state == FALSE)
 2611              		.loc 1 1361 8 is_stmt 1 view .LVU693
 2612              		.loc 1 1361 10 is_stmt 0 view .LVU694
 2613 0004 1AB9     		cbnz	r2, .L172
1362:bsp/libraries/drivers/src/at32f435_437_tmr.c ****   {
1363:bsp/libraries/drivers/src/at32f435_437_tmr.c ****     tmr_x->iden &= ~dma_request;
 2614              		.loc 1 1363 5 is_stmt 1 view .LVU695
 2615              		.loc 1 1363 17 is_stmt 0 view .LVU696
 2616 0006 C368     		ldr	r3, [r0, #12]
 2617 0008 23EA0101 		bic	r1, r3, r1
 2618              	.LVL173:
 2619              		.loc 1 1363 17 view .LVU697
 2620 000c C160     		str	r1, [r0, #12]
 2621              	.L172:
ARM GAS  C:\Users\user\AppData\Local\Temp\cccs5OkE.s 			page 72


1364:bsp/libraries/drivers/src/at32f435_437_tmr.c ****   }
1365:bsp/libraries/drivers/src/at32f435_437_tmr.c **** }
 2622              		.loc 1 1365 1 view .LVU698
 2623 000e 7047     		bx	lr
 2624              	.LVL174:
 2625              	.L175:
1359:bsp/libraries/drivers/src/at32f435_437_tmr.c ****   }
 2626              		.loc 1 1359 5 is_stmt 1 view .LVU699
1359:bsp/libraries/drivers/src/at32f435_437_tmr.c ****   }
 2627              		.loc 1 1359 17 is_stmt 0 view .LVU700
 2628 0010 C368     		ldr	r3, [r0, #12]
 2629 0012 1943     		orrs	r1, r1, r3
 2630              	.LVL175:
1359:bsp/libraries/drivers/src/at32f435_437_tmr.c ****   }
 2631              		.loc 1 1359 17 view .LVU701
 2632 0014 C160     		str	r1, [r0, #12]
 2633 0016 7047     		bx	lr
 2634              		.cfi_endproc
 2635              	.LFE174:
 2637              		.section	.text.tmr_interrupt_enable,"ax",%progbits
 2638              		.align	1
 2639              		.global	tmr_interrupt_enable
 2640              		.syntax unified
 2641              		.thumb
 2642              		.thumb_func
 2644              	tmr_interrupt_enable:
 2645              	.LVL176:
 2646              	.LFB175:
1366:bsp/libraries/drivers/src/at32f435_437_tmr.c **** 
1367:bsp/libraries/drivers/src/at32f435_437_tmr.c **** /**
1368:bsp/libraries/drivers/src/at32f435_437_tmr.c ****   * @brief  enable or disable tmr interrupt
1369:bsp/libraries/drivers/src/at32f435_437_tmr.c ****   * @param  tmr_x: select the tmr peripheral.
1370:bsp/libraries/drivers/src/at32f435_437_tmr.c ****   *         this parameter can be one of the following values:
1371:bsp/libraries/drivers/src/at32f435_437_tmr.c ****   *         TMR1, TMR2, TMR3, TMR4, TMR5, TMR6, TMR7, TMR8,
1372:bsp/libraries/drivers/src/at32f435_437_tmr.c ****   *         TMR9, TMR10, TMR11, TMR12, TMR13, TMR14, TMR20
1373:bsp/libraries/drivers/src/at32f435_437_tmr.c ****   * @param  tmr_interrupt
1374:bsp/libraries/drivers/src/at32f435_437_tmr.c ****   *         this parameter can be one of the following values:
1375:bsp/libraries/drivers/src/at32f435_437_tmr.c ****   *         - TMR_OVF_INT
1376:bsp/libraries/drivers/src/at32f435_437_tmr.c ****   *         - TMR_C1_INT
1377:bsp/libraries/drivers/src/at32f435_437_tmr.c ****   *         - TMR_C2_INT
1378:bsp/libraries/drivers/src/at32f435_437_tmr.c ****   *         - TMR_C3_INT
1379:bsp/libraries/drivers/src/at32f435_437_tmr.c ****   *         - TMR_C4_INT
1380:bsp/libraries/drivers/src/at32f435_437_tmr.c ****   *         - TMR_HALL_INT
1381:bsp/libraries/drivers/src/at32f435_437_tmr.c ****   *         - TMR_TRIGGER_INT
1382:bsp/libraries/drivers/src/at32f435_437_tmr.c ****   *         - TMR_BRK_INT
1383:bsp/libraries/drivers/src/at32f435_437_tmr.c ****   * @param  new_state (TRUE or FALSE)
1384:bsp/libraries/drivers/src/at32f435_437_tmr.c ****   * @retval none
1385:bsp/libraries/drivers/src/at32f435_437_tmr.c ****   */
1386:bsp/libraries/drivers/src/at32f435_437_tmr.c **** void tmr_interrupt_enable(tmr_type *tmr_x, uint32_t tmr_interrupt, confirm_state new_state)
1387:bsp/libraries/drivers/src/at32f435_437_tmr.c **** {
 2647              		.loc 1 1387 1 is_stmt 1 view -0
 2648              		.cfi_startproc
 2649              		@ args = 0, pretend = 0, frame = 0
 2650              		@ frame_needed = 0, uses_anonymous_args = 0
 2651              		@ link register save eliminated.
1388:bsp/libraries/drivers/src/at32f435_437_tmr.c ****   if(new_state == TRUE)
 2652              		.loc 1 1388 3 view .LVU703
ARM GAS  C:\Users\user\AppData\Local\Temp\cccs5OkE.s 			page 73


 2653              		.loc 1 1388 5 is_stmt 0 view .LVU704
 2654 0000 012A     		cmp	r2, #1
 2655 0002 05D0     		beq	.L179
1389:bsp/libraries/drivers/src/at32f435_437_tmr.c ****   {
1390:bsp/libraries/drivers/src/at32f435_437_tmr.c ****     tmr_x->iden |= tmr_interrupt;
1391:bsp/libraries/drivers/src/at32f435_437_tmr.c ****   }
1392:bsp/libraries/drivers/src/at32f435_437_tmr.c ****   else if(new_state == FALSE)
 2656              		.loc 1 1392 8 is_stmt 1 view .LVU705
 2657              		.loc 1 1392 10 is_stmt 0 view .LVU706
 2658 0004 1AB9     		cbnz	r2, .L176
1393:bsp/libraries/drivers/src/at32f435_437_tmr.c ****   {
1394:bsp/libraries/drivers/src/at32f435_437_tmr.c ****     tmr_x->iden &= ~tmr_interrupt;
 2659              		.loc 1 1394 5 is_stmt 1 view .LVU707
 2660              		.loc 1 1394 17 is_stmt 0 view .LVU708
 2661 0006 C368     		ldr	r3, [r0, #12]
 2662 0008 23EA0101 		bic	r1, r3, r1
 2663              	.LVL177:
 2664              		.loc 1 1394 17 view .LVU709
 2665 000c C160     		str	r1, [r0, #12]
 2666              	.L176:
1395:bsp/libraries/drivers/src/at32f435_437_tmr.c ****   }
1396:bsp/libraries/drivers/src/at32f435_437_tmr.c **** }
 2667              		.loc 1 1396 1 view .LVU710
 2668 000e 7047     		bx	lr
 2669              	.LVL178:
 2670              	.L179:
1390:bsp/libraries/drivers/src/at32f435_437_tmr.c ****   }
 2671              		.loc 1 1390 5 is_stmt 1 view .LVU711
1390:bsp/libraries/drivers/src/at32f435_437_tmr.c ****   }
 2672              		.loc 1 1390 17 is_stmt 0 view .LVU712
 2673 0010 C368     		ldr	r3, [r0, #12]
 2674 0012 1943     		orrs	r1, r1, r3
 2675              	.LVL179:
1390:bsp/libraries/drivers/src/at32f435_437_tmr.c ****   }
 2676              		.loc 1 1390 17 view .LVU713
 2677 0014 C160     		str	r1, [r0, #12]
 2678 0016 7047     		bx	lr
 2679              		.cfi_endproc
 2680              	.LFE175:
 2682              		.section	.text.tmr_interrupt_flag_get,"ax",%progbits
 2683              		.align	1
 2684              		.global	tmr_interrupt_flag_get
 2685              		.syntax unified
 2686              		.thumb
 2687              		.thumb_func
 2689              	tmr_interrupt_flag_get:
 2690              	.LVL180:
 2691              	.LFB176:
1397:bsp/libraries/drivers/src/at32f435_437_tmr.c **** 
1398:bsp/libraries/drivers/src/at32f435_437_tmr.c **** /**
1399:bsp/libraries/drivers/src/at32f435_437_tmr.c ****   * @brief  get tmr interrupt flag
1400:bsp/libraries/drivers/src/at32f435_437_tmr.c ****   * @param  tmr_x: select the tmr peripheral.
1401:bsp/libraries/drivers/src/at32f435_437_tmr.c ****   *         this parameter can be one of the following values:
1402:bsp/libraries/drivers/src/at32f435_437_tmr.c ****   *         TMR1, TMR2, TMR3, TMR4, TMR5, TMR6, TMR7, TMR8,
1403:bsp/libraries/drivers/src/at32f435_437_tmr.c ****   *         TMR9, TMR10, TMR11, TMR12, TMR13, TMR14, TMR20
1404:bsp/libraries/drivers/src/at32f435_437_tmr.c ****   * @param  tmr_flag
1405:bsp/libraries/drivers/src/at32f435_437_tmr.c ****   *         this parameter can be one of the following values:
ARM GAS  C:\Users\user\AppData\Local\Temp\cccs5OkE.s 			page 74


1406:bsp/libraries/drivers/src/at32f435_437_tmr.c ****   *         - TMR_OVF_FLAG
1407:bsp/libraries/drivers/src/at32f435_437_tmr.c ****   *         - TMR_C1_FLAG
1408:bsp/libraries/drivers/src/at32f435_437_tmr.c ****   *         - TMR_C2_FLAG
1409:bsp/libraries/drivers/src/at32f435_437_tmr.c ****   *         - TMR_C3_FLAG
1410:bsp/libraries/drivers/src/at32f435_437_tmr.c ****   *         - TMR_C4_FLAG
1411:bsp/libraries/drivers/src/at32f435_437_tmr.c ****   *         - TMR_HALL_FLAG
1412:bsp/libraries/drivers/src/at32f435_437_tmr.c ****   *         - TMR_TRIGGER_FLAG
1413:bsp/libraries/drivers/src/at32f435_437_tmr.c ****   *         - TMR_BRK_FLAG
1414:bsp/libraries/drivers/src/at32f435_437_tmr.c ****   * @retval state of tmr interrupt flag
1415:bsp/libraries/drivers/src/at32f435_437_tmr.c ****   */
1416:bsp/libraries/drivers/src/at32f435_437_tmr.c **** flag_status tmr_interrupt_flag_get(tmr_type *tmr_x, uint32_t tmr_flag)
1417:bsp/libraries/drivers/src/at32f435_437_tmr.c **** {
 2692              		.loc 1 1417 1 is_stmt 1 view -0
 2693              		.cfi_startproc
